
printf.elf：     文件格式 elf32-littlearm


Disassembly of section .text:

87800000 <_start>:
87800000:	e59ff100 	ldr	pc, [pc, #256]	; 87800108 <FIQ_Handler+0x8>
87800004:	e59ff100 	ldr	pc, [pc, #256]	; 8780010c <FIQ_Handler+0xc>
87800008:	e59ff100 	ldr	pc, [pc, #256]	; 87800110 <FIQ_Handler+0x10>
8780000c:	e59ff100 	ldr	pc, [pc, #256]	; 87800114 <FIQ_Handler+0x14>
87800010:	e59ff100 	ldr	pc, [pc, #256]	; 87800118 <FIQ_Handler+0x18>
87800014:	e59ff100 	ldr	pc, [pc, #256]	; 8780011c <FIQ_Handler+0x1c>
87800018:	e59ff100 	ldr	pc, [pc, #256]	; 87800120 <FIQ_Handler+0x20>
8780001c:	e59ff100 	ldr	pc, [pc, #256]	; 87800124 <FIQ_Handler+0x24>

87800020 <Reset_Handler>:
87800020:	f10c0080 	cpsid	i
87800024:	ee110f10 	mrc	15, 0, r0, cr1, cr0, {0}
87800028:	e3c00a01 	bic	r0, r0, #4096	; 0x1000
8780002c:	e3c00004 	bic	r0, r0, #4
87800030:	e3c00002 	bic	r0, r0, #2
87800034:	e3c00b02 	bic	r0, r0, #2048	; 0x800
87800038:	e3c00001 	bic	r0, r0, #1
8780003c:	ee010f10 	mcr	15, 0, r0, cr1, cr0, {0}
87800040:	e10f0000 	mrs	r0, CPSR
87800044:	e3c0001f 	bic	r0, r0, #31
87800048:	e3800012 	orr	r0, r0, #18
8780004c:	e129f000 	msr	CPSR_fc, r0
87800050:	e59fd0d0 	ldr	sp, [pc, #208]	; 87800128 <FIQ_Handler+0x28>
87800054:	e10f0000 	mrs	r0, CPSR
87800058:	e3c0001f 	bic	r0, r0, #31
8780005c:	e380001f 	orr	r0, r0, #31
87800060:	e129f000 	msr	CPSR_fc, r0
87800064:	e59fd0c0 	ldr	sp, [pc, #192]	; 8780012c <FIQ_Handler+0x2c>
87800068:	e10f0000 	mrs	r0, CPSR
8780006c:	e3c0001f 	bic	r0, r0, #31
87800070:	e3800013 	orr	r0, r0, #19
87800074:	e129f000 	msr	CPSR_fc, r0
87800078:	e59fd0b0 	ldr	sp, [pc, #176]	; 87800130 <FIQ_Handler+0x30>
8780007c:	f1080080 	cpsie	i
87800080:	ea000aae 	b	87802b40 <__main_from_arm>

87800084 <Undefined_Handler>:
87800084:	e59f0080 	ldr	r0, [pc, #128]	; 8780010c <FIQ_Handler+0xc>
87800088:	e12fff10 	bx	r0

8780008c <SVC_Handler>:
8780008c:	e59f007c 	ldr	r0, [pc, #124]	; 87800110 <FIQ_Handler+0x10>
87800090:	e12fff10 	bx	r0

87800094 <PrefAbort_Handler>:
87800094:	e59f0078 	ldr	r0, [pc, #120]	; 87800114 <FIQ_Handler+0x14>
87800098:	e12fff10 	bx	r0

8780009c <DataAbort_Handler>:
8780009c:	e59f0074 	ldr	r0, [pc, #116]	; 87800118 <FIQ_Handler+0x18>
878000a0:	e12fff10 	bx	r0

878000a4 <NotUsed_Handler>:
878000a4:	e59f0070 	ldr	r0, [pc, #112]	; 8780011c <FIQ_Handler+0x1c>
878000a8:	e12fff10 	bx	r0

878000ac <IRQ_Handler>:
878000ac:	e52de004 	push	{lr}		; (str lr, [sp, #-4]!)
878000b0:	e92d100f 	push	{r0, r1, r2, r3, ip}
878000b4:	e14f0000 	mrs	r0, SPSR
878000b8:	e52d0004 	push	{r0}		; (str r0, [sp, #-4]!)
878000bc:	ee9f1f10 	mrc	15, 4, r1, cr15, cr0, {0}
878000c0:	e2811a02 	add	r1, r1, #8192	; 0x2000
878000c4:	e591000c 	ldr	r0, [r1, #12]
878000c8:	e92d0003 	push	{r0, r1}
878000cc:	f1020013 	cps	#19
878000d0:	e52de004 	push	{lr}		; (str lr, [sp, #-4]!)
878000d4:	e59f2058 	ldr	r2, [pc, #88]	; 87800134 <FIQ_Handler+0x34>
878000d8:	e12fff32 	blx	r2
878000dc:	e49de004 	pop	{lr}		; (ldr lr, [sp], #4)
878000e0:	f1020012 	cps	#18
878000e4:	e8bd0003 	pop	{r0, r1}
878000e8:	e5810010 	str	r0, [r1, #16]
878000ec:	e49d0004 	pop	{r0}		; (ldr r0, [sp], #4)
878000f0:	e16ff000 	msr	SPSR_fsxc, r0
878000f4:	e8bd100f 	pop	{r0, r1, r2, r3, ip}
878000f8:	e49de004 	pop	{lr}		; (ldr lr, [sp], #4)
878000fc:	e25ef004 	subs	pc, lr, #4

87800100 <FIQ_Handler>:
87800100:	e59f001c 	ldr	r0, [pc, #28]	; 87800124 <FIQ_Handler+0x24>
87800104:	e12fff10 	bx	r0
87800108:	87800020 	strhi	r0, [r0, r0, lsr #32]
8780010c:	87800084 	strhi	r0, [r0, r4, lsl #1]
87800110:	8780008c 	strhi	r0, [r0, ip, lsl #1]
87800114:	87800094 			; <UNDEFINED> instruction: 0x87800094
87800118:	8780009c 			; <UNDEFINED> instruction: 0x8780009c
8780011c:	878000a4 	strhi	r0, [r0, r4, lsr #1]
87800120:	878000ac 	strhi	r0, [r0, ip, lsr #1]
87800124:	87800100 	strhi	r0, [r0, r0, lsl #2]
87800128:	80600000 	rsbhi	r0, r0, r0
8780012c:	80400000 	subhi	r0, r0, r0
87800130:	80200000 	eorhi	r0, r0, r0
87800134:	878008ad 	strhi	r0, [r0, sp, lsr #17]
87800138:	00001e41 	andeq	r1, r0, r1, asr #28
8780013c:	61656100 	cmnvs	r5, r0, lsl #2
87800140:	01006962 	tsteq	r0, r2, ror #18
87800144:	00000014 	andeq	r0, r0, r4, lsl r0
87800148:	412d3705 			; <UNDEFINED> instruction: 0x412d3705
8780014c:	070a0600 	streq	r0, [sl, -r0, lsl #12]
87800150:	09010841 	stmdbeq	r1, {r0, r6, fp}
87800154:	00040a02 	andeq	r0, r4, r2, lsl #20
	...

87800160 <__umodsi3>:
87800160:	e2512001 	subs	r2, r1, #1
87800164:	3a000062 	bcc	878002f4 <Ldiv0>
87800168:	11500001 	cmpne	r0, r1
8780016c:	03a00000 	moveq	r0, #0
87800170:	81110002 	tsthi	r1, r2
87800174:	00000002 	andeq	r0, r0, r2
87800178:	91a0f00e 	movls	pc, lr
8780017c:	e3a02000 	mov	r2, #0
87800180:	e3510201 	cmp	r1, #268435456	; 0x10000000
87800184:	31510000 	cmpcc	r1, r0
87800188:	31a01201 	lslcc	r1, r1, #4
8780018c:	32822004 	addcc	r2, r2, #4
87800190:	3afffffa 	bcc	87800180 <__umodsi3+0x20>
87800194:	e3510102 	cmp	r1, #-2147483648	; 0x80000000
87800198:	31510000 	cmpcc	r1, r0
8780019c:	31a01081 	lslcc	r1, r1, #1
878001a0:	32822001 	addcc	r2, r2, #1
878001a4:	3afffffa 	bcc	87800194 <__umodsi3+0x34>
878001a8:	e2522003 	subs	r2, r2, #3
878001ac:	ba00000e 	blt	878001ec <__umodsi3+0x8c>
878001b0:	e1500001 	cmp	r0, r1
878001b4:	20400001 	subcs	r0, r0, r1
878001b8:	e15000a1 	cmp	r0, r1, lsr #1
878001bc:	204000a1 	subcs	r0, r0, r1, lsr #1
878001c0:	e1500121 	cmp	r0, r1, lsr #2
878001c4:	20400121 	subcs	r0, r0, r1, lsr #2
878001c8:	e15001a1 	cmp	r0, r1, lsr #3
878001cc:	204001a1 	subcs	r0, r0, r1, lsr #3
878001d0:	e3500001 	cmp	r0, #1
878001d4:	e1a01221 	lsr	r1, r1, #4
878001d8:	a2522004 	subsge	r2, r2, #4
878001dc:	aafffff3 	bge	878001b0 <__umodsi3+0x50>
878001e0:	e3120003 	tst	r2, #3
878001e4:	13300000 	teqne	r0, #0
878001e8:	0a00000a 	beq	87800218 <__umodsi3+0xb8>
878001ec:	e3720002 	cmn	r2, #2
878001f0:	ba000006 	blt	87800210 <__umodsi3+0xb0>
878001f4:	0a000002 	beq	87800204 <__umodsi3+0xa4>
878001f8:	e1500001 	cmp	r0, r1
878001fc:	20400001 	subcs	r0, r0, r1
87800200:	e1a010a1 	lsr	r1, r1, #1
87800204:	e1500001 	cmp	r0, r1
87800208:	20400001 	subcs	r0, r0, r1
8780020c:	e1a010a1 	lsr	r1, r1, #1
87800210:	e1500001 	cmp	r0, r1
87800214:	20400001 	subcs	r0, r0, r1
87800218:	e1a0f00e 	mov	pc, lr
8780021c:	90909090 	umullsls	r9, r0, r0, r0

87800220 <__modsi3>:
87800220:	e3510000 	cmp	r1, #0
87800224:	0a000032 	beq	878002f4 <Ldiv0>
87800228:	42611000 	rsbmi	r1, r1, #0
8780022c:	e1b0c000 	movs	ip, r0
87800230:	42600000 	rsbmi	r0, r0, #0
87800234:	e2512001 	subs	r2, r1, #1
87800238:	11500001 	cmpne	r0, r1
8780023c:	03a00000 	moveq	r0, #0
87800240:	81110002 	tsthi	r1, r2
87800244:	00000002 	andeq	r0, r0, r2
87800248:	9a000026 	bls	878002e8 <__modsi3+0xc8>
8780024c:	e3a02000 	mov	r2, #0
87800250:	e3510201 	cmp	r1, #268435456	; 0x10000000
87800254:	31510000 	cmpcc	r1, r0
87800258:	31a01201 	lslcc	r1, r1, #4
8780025c:	32822004 	addcc	r2, r2, #4
87800260:	3afffffa 	bcc	87800250 <__modsi3+0x30>
87800264:	e3510102 	cmp	r1, #-2147483648	; 0x80000000
87800268:	31510000 	cmpcc	r1, r0
8780026c:	31a01081 	lslcc	r1, r1, #1
87800270:	32822001 	addcc	r2, r2, #1
87800274:	3afffffa 	bcc	87800264 <__modsi3+0x44>
87800278:	e2522003 	subs	r2, r2, #3
8780027c:	ba00000e 	blt	878002bc <__modsi3+0x9c>
87800280:	e1500001 	cmp	r0, r1
87800284:	20400001 	subcs	r0, r0, r1
87800288:	e15000a1 	cmp	r0, r1, lsr #1
8780028c:	204000a1 	subcs	r0, r0, r1, lsr #1
87800290:	e1500121 	cmp	r0, r1, lsr #2
87800294:	20400121 	subcs	r0, r0, r1, lsr #2
87800298:	e15001a1 	cmp	r0, r1, lsr #3
8780029c:	204001a1 	subcs	r0, r0, r1, lsr #3
878002a0:	e3500001 	cmp	r0, #1
878002a4:	e1a01221 	lsr	r1, r1, #4
878002a8:	a2522004 	subsge	r2, r2, #4
878002ac:	aafffff3 	bge	87800280 <__modsi3+0x60>
878002b0:	e3120003 	tst	r2, #3
878002b4:	13300000 	teqne	r0, #0
878002b8:	0a00000a 	beq	878002e8 <__modsi3+0xc8>
878002bc:	e3720002 	cmn	r2, #2
878002c0:	ba000006 	blt	878002e0 <__modsi3+0xc0>
878002c4:	0a000002 	beq	878002d4 <__modsi3+0xb4>
878002c8:	e1500001 	cmp	r0, r1
878002cc:	20400001 	subcs	r0, r0, r1
878002d0:	e1a010a1 	lsr	r1, r1, #1
878002d4:	e1500001 	cmp	r0, r1
878002d8:	20400001 	subcs	r0, r0, r1
878002dc:	e1a010a1 	lsr	r1, r1, #1
878002e0:	e1500001 	cmp	r0, r1
878002e4:	20400001 	subcs	r0, r0, r1
878002e8:	e35c0000 	cmp	ip, #0
878002ec:	42600000 	rsbmi	r0, r0, #0
878002f0:	e1a0f00e 	mov	pc, lr

878002f4 <Ldiv0>:
878002f4:	e52de004 	push	{lr}		; (str lr, [sp, #-4]!)
878002f8:	e3a00000 	mov	r0, #0
878002fc:	e49df004 	pop	{pc}		; (ldr pc, [sp], #4)

87800300 <clk_enable>:
87800300:	f44f 4380 	mov.w	r3, #16384	; 0x4000
87800304:	f04f 32ff 	mov.w	r2, #4294967295	; 0xffffffff
87800308:	f2c0 230c 	movt	r3, #524	; 0x20c
8780030c:	669a      	str	r2, [r3, #104]	; 0x68
8780030e:	66da      	str	r2, [r3, #108]	; 0x6c
87800310:	671a      	str	r2, [r3, #112]	; 0x70
87800312:	675a      	str	r2, [r3, #116]	; 0x74
87800314:	679a      	str	r2, [r3, #120]	; 0x78
87800316:	67da      	str	r2, [r3, #124]	; 0x7c
87800318:	f8c3 2080 	str.w	r2, [r3, #128]	; 0x80
8780031c:	4770      	bx	lr
8780031e:	bf00      	nop

87800320 <imx6u_clkinit>:
87800320:	f44f 4380 	mov.w	r3, #16384	; 0x4000
87800324:	b470      	push	{r4, r5, r6}
87800326:	f2c0 230c 	movt	r3, #524	; 0x20c
8780032a:	68da      	ldr	r2, [r3, #12]
8780032c:	0751      	lsls	r1, r2, #29
8780032e:	d407      	bmi.n	87800340 <imx6u_clkinit+0x20>
87800330:	68da      	ldr	r2, [r3, #12]
87800332:	f422 7280 	bic.w	r2, r2, #256	; 0x100
87800336:	60da      	str	r2, [r3, #12]
87800338:	68da      	ldr	r2, [r3, #12]
8780033a:	f042 0204 	orr.w	r2, r2, #4
8780033e:	60da      	str	r2, [r3, #12]
87800340:	f44f 4200 	mov.w	r2, #32768	; 0x8000
87800344:	f44f 4380 	mov.w	r3, #16384	; 0x4000
87800348:	f2c0 230c 	movt	r3, #524	; 0x20c
8780034c:	f2c0 220c 	movt	r2, #524	; 0x20c
87800350:	f242 0142 	movw	r1, #8258	; 0x2042
87800354:	2600      	movs	r6, #0
87800356:	6011      	str	r1, [r2, #0]
87800358:	f241 041b 	movw	r4, #4123	; 0x101b
8780035c:	68dd      	ldr	r5, [r3, #12]
8780035e:	f2c2 0418 	movt	r4, #8216	; 0x2018
87800362:	f241 000c 	movw	r0, #4108	; 0x100c
87800366:	4619      	mov	r1, r3
87800368:	f2c1 3011 	movt	r0, #4881	; 0x1311
8780036c:	f025 0504 	bic.w	r5, r5, #4
87800370:	60dd      	str	r5, [r3, #12]
87800372:	611e      	str	r6, [r3, #16]
87800374:	f8d2 5100 	ldr.w	r5, [r2, #256]	; 0x100
87800378:	f005 35c0 	and.w	r5, r5, #3233857728	; 0xc0c0c0c0
8780037c:	432c      	orrs	r4, r5
8780037e:	f8c2 4100 	str.w	r4, [r2, #256]	; 0x100
87800382:	f8d2 40f0 	ldr.w	r4, [r2, #240]	; 0xf0
87800386:	f004 34c0 	and.w	r4, r4, #3233857728	; 0xc0c0c0c0
8780038a:	4320      	orrs	r0, r4
8780038c:	f8c2 00f0 	str.w	r0, [r2, #240]	; 0xf0
87800390:	699a      	ldr	r2, [r3, #24]
87800392:	f422 2240 	bic.w	r2, r2, #786432	; 0xc0000
87800396:	619a      	str	r2, [r3, #24]
87800398:	699a      	ldr	r2, [r3, #24]
8780039a:	f442 2280 	orr.w	r2, r2, #262144	; 0x40000
8780039e:	619a      	str	r2, [r3, #24]
878003a0:	695a      	ldr	r2, [r3, #20]
878003a2:	f022 7200 	bic.w	r2, r2, #33554432	; 0x2000000
878003a6:	615a      	str	r2, [r3, #20]
878003a8:	6c8a      	ldr	r2, [r1, #72]	; 0x48
878003aa:	f44f 4380 	mov.w	r3, #16384	; 0x4000
878003ae:	f2c0 230c 	movt	r3, #524	; 0x20c
878003b2:	0692      	lsls	r2, r2, #26
878003b4:	d4f8      	bmi.n	878003a8 <imx6u_clkinit+0x88>
878003b6:	695a      	ldr	r2, [r3, #20]
878003b8:	bc70      	pop	{r4, r5, r6}
878003ba:	f422 7240 	bic.w	r2, r2, #768	; 0x300
878003be:	615a      	str	r2, [r3, #20]
878003c0:	695a      	ldr	r2, [r3, #20]
878003c2:	f442 7280 	orr.w	r2, r2, #256	; 0x100
878003c6:	615a      	str	r2, [r3, #20]
878003c8:	69da      	ldr	r2, [r3, #28]
878003ca:	f022 0240 	bic.w	r2, r2, #64	; 0x40
878003ce:	61da      	str	r2, [r3, #28]
878003d0:	69da      	ldr	r2, [r3, #28]
878003d2:	f022 0207 	bic.w	r2, r2, #7
878003d6:	61da      	str	r2, [r3, #28]
878003d8:	4770      	bx	lr
878003da:	bf00      	nop

878003dc <led_init>:
878003dc:	2168      	movs	r1, #104	; 0x68
878003de:	f44f 723d 	mov.w	r2, #756	; 0x2f4
878003e2:	f44f 4340 	mov.w	r3, #49152	; 0xc000
878003e6:	b410      	push	{r4}
878003e8:	f2c0 2309 	movt	r3, #521	; 0x209
878003ec:	2405      	movs	r4, #5
878003ee:	f2c0 220e 	movt	r2, #526	; 0x20e
878003f2:	f2c0 210e 	movt	r1, #526	; 0x20e
878003f6:	f241 00b0 	movw	r0, #4272	; 0x10b0
878003fa:	600c      	str	r4, [r1, #0]
878003fc:	6010      	str	r0, [r2, #0]
878003fe:	685a      	ldr	r2, [r3, #4]
87800400:	f85d 4b04 	ldr.w	r4, [sp], #4
87800404:	f042 0208 	orr.w	r2, r2, #8
87800408:	605a      	str	r2, [r3, #4]
8780040a:	681a      	ldr	r2, [r3, #0]
8780040c:	f022 0208 	bic.w	r2, r2, #8
87800410:	601a      	str	r2, [r3, #0]
87800412:	4770      	bx	lr

87800414 <led_switch>:
87800414:	b950      	cbnz	r0, 8780042c <led_switch+0x18>
87800416:	2901      	cmp	r1, #1
87800418:	d009      	beq.n	8780042e <led_switch+0x1a>
8780041a:	b939      	cbnz	r1, 8780042c <led_switch+0x18>
8780041c:	f44f 4340 	mov.w	r3, #49152	; 0xc000
87800420:	f2c0 2309 	movt	r3, #521	; 0x209
87800424:	681a      	ldr	r2, [r3, #0]
87800426:	f042 0208 	orr.w	r2, r2, #8
8780042a:	601a      	str	r2, [r3, #0]
8780042c:	4770      	bx	lr
8780042e:	f44f 4340 	mov.w	r3, #49152	; 0xc000
87800432:	f2c0 2309 	movt	r3, #521	; 0x209
87800436:	681a      	ldr	r2, [r3, #0]
87800438:	f022 0208 	bic.w	r2, r2, #8
8780043c:	601a      	str	r2, [r3, #0]
8780043e:	4770      	bx	lr

87800440 <delay_init>:
87800440:	f44f 4300 	mov.w	r3, #32768	; 0x8000
87800444:	2000      	movs	r0, #0
87800446:	f2c0 2309 	movt	r3, #521	; 0x209
8780044a:	f44f 4200 	mov.w	r2, #32768	; 0x8000
8780044e:	4619      	mov	r1, r3
87800450:	6018      	str	r0, [r3, #0]
87800452:	601a      	str	r2, [r3, #0]
87800454:	680a      	ldr	r2, [r1, #0]
87800456:	f44f 4300 	mov.w	r3, #32768	; 0x8000
8780045a:	f2c0 2309 	movt	r3, #521	; 0x209
8780045e:	0412      	lsls	r2, r2, #16
87800460:	d4f8      	bmi.n	87800454 <delay_init+0x14>
87800462:	f04f 32ff 	mov.w	r2, #4294967295	; 0xffffffff
87800466:	2040      	movs	r0, #64	; 0x40
87800468:	2141      	movs	r1, #65	; 0x41
8780046a:	6018      	str	r0, [r3, #0]
8780046c:	6059      	str	r1, [r3, #4]
8780046e:	611a      	str	r2, [r3, #16]
87800470:	681a      	ldr	r2, [r3, #0]
87800472:	f042 0201 	orr.w	r2, r2, #1
87800476:	601a      	str	r2, [r3, #0]
87800478:	4770      	bx	lr
8780047a:	bf00      	nop

8780047c <delayus>:
8780047c:	f44f 4100 	mov.w	r1, #32768	; 0x8000
87800480:	b430      	push	{r4, r5}
87800482:	f2c0 2109 	movt	r1, #521	; 0x209
87800486:	2400      	movs	r4, #0
87800488:	6a4a      	ldr	r2, [r1, #36]	; 0x24
8780048a:	6a4b      	ldr	r3, [r1, #36]	; 0x24
8780048c:	4293      	cmp	r3, r2
8780048e:	d0fc      	beq.n	8780048a <delayus+0xe>
87800490:	1e65      	subs	r5, r4, #1
87800492:	429a      	cmp	r2, r3
87800494:	eba4 0402 	sub.w	r4, r4, r2
87800498:	eba5 0502 	sub.w	r5, r5, r2
8780049c:	bf34      	ite	cc
8780049e:	18e4      	addcc	r4, r4, r3
878004a0:	18ec      	addcs	r4, r5, r3
878004a2:	4284      	cmp	r4, r0
878004a4:	461a      	mov	r2, r3
878004a6:	d3f0      	bcc.n	8780048a <delayus+0xe>
878004a8:	bc30      	pop	{r4, r5}
878004aa:	4770      	bx	lr

878004ac <delayms>:
878004ac:	b1d8      	cbz	r0, 878004e6 <delayms+0x3a>
878004ae:	f44f 4100 	mov.w	r1, #32768	; 0x8000
878004b2:	b470      	push	{r4, r5, r6}
878004b4:	f2c0 2109 	movt	r1, #521	; 0x209
878004b8:	2600      	movs	r6, #0
878004ba:	2400      	movs	r4, #0
878004bc:	6a4a      	ldr	r2, [r1, #36]	; 0x24
878004be:	6a4b      	ldr	r3, [r1, #36]	; 0x24
878004c0:	4293      	cmp	r3, r2
878004c2:	d0fc      	beq.n	878004be <delayms+0x12>
878004c4:	1e65      	subs	r5, r4, #1
878004c6:	429a      	cmp	r2, r3
878004c8:	eba4 0402 	sub.w	r4, r4, r2
878004cc:	eba5 0502 	sub.w	r5, r5, r2
878004d0:	bf34      	ite	cc
878004d2:	18e4      	addcc	r4, r4, r3
878004d4:	18ec      	addcs	r4, r5, r3
878004d6:	f5b4 7f7a 	cmp.w	r4, #1000	; 0x3e8
878004da:	461a      	mov	r2, r3
878004dc:	d3ef      	bcc.n	878004be <delayms+0x12>
878004de:	3601      	adds	r6, #1
878004e0:	4286      	cmp	r6, r0
878004e2:	d1ea      	bne.n	878004ba <delayms+0xe>
878004e4:	bc70      	pop	{r4, r5, r6}
878004e6:	4770      	bx	lr

878004e8 <delay_short>:
878004e8:	b082      	sub	sp, #8
878004ea:	9001      	str	r0, [sp, #4]
878004ec:	9b01      	ldr	r3, [sp, #4]
878004ee:	1e5a      	subs	r2, r3, #1
878004f0:	9201      	str	r2, [sp, #4]
878004f2:	2b00      	cmp	r3, #0
878004f4:	d1fa      	bne.n	878004ec <delay_short+0x4>
878004f6:	b002      	add	sp, #8
878004f8:	4770      	bx	lr
878004fa:	bf00      	nop

878004fc <delay>:
878004fc:	b082      	sub	sp, #8
878004fe:	9001      	str	r0, [sp, #4]
87800500:	9b01      	ldr	r3, [sp, #4]
87800502:	1e5a      	subs	r2, r3, #1
87800504:	9201      	str	r2, [sp, #4]
87800506:	b153      	cbz	r3, 8780051e <delay+0x22>
87800508:	f240 73ff 	movw	r3, #2047	; 0x7ff
8780050c:	461a      	mov	r2, r3
8780050e:	3b01      	subs	r3, #1
87800510:	2a00      	cmp	r2, #0
87800512:	d1fb      	bne.n	8780050c <delay+0x10>
87800514:	9b01      	ldr	r3, [sp, #4]
87800516:	1e5a      	subs	r2, r3, #1
87800518:	9201      	str	r2, [sp, #4]
8780051a:	2b00      	cmp	r3, #0
8780051c:	d1f4      	bne.n	87800508 <delay+0xc>
8780051e:	b002      	add	sp, #8
87800520:	4770      	bx	lr
87800522:	bf00      	nop

87800524 <beep_init>:
87800524:	210c      	movs	r1, #12
87800526:	2250      	movs	r2, #80	; 0x50
87800528:	f44f 4340 	mov.w	r3, #49152	; 0xc000
8780052c:	b410      	push	{r4}
8780052e:	f2c0 230a 	movt	r3, #522	; 0x20a
87800532:	2405      	movs	r4, #5
87800534:	f2c0 2229 	movt	r2, #553	; 0x229
87800538:	f2c0 2129 	movt	r1, #553	; 0x229
8780053c:	f241 00b0 	movw	r0, #4272	; 0x10b0
87800540:	600c      	str	r4, [r1, #0]
87800542:	6010      	str	r0, [r2, #0]
87800544:	685a      	ldr	r2, [r3, #4]
87800546:	f85d 4b04 	ldr.w	r4, [sp], #4
8780054a:	f042 0202 	orr.w	r2, r2, #2
8780054e:	605a      	str	r2, [r3, #4]
87800550:	681a      	ldr	r2, [r3, #0]
87800552:	f042 0202 	orr.w	r2, r2, #2
87800556:	601a      	str	r2, [r3, #0]
87800558:	4770      	bx	lr
8780055a:	bf00      	nop

8780055c <beep_switch>:
8780055c:	2801      	cmp	r0, #1
8780055e:	d009      	beq.n	87800574 <beep_switch+0x18>
87800560:	b938      	cbnz	r0, 87800572 <beep_switch+0x16>
87800562:	f44f 4340 	mov.w	r3, #49152	; 0xc000
87800566:	f2c0 230a 	movt	r3, #522	; 0x20a
8780056a:	681a      	ldr	r2, [r3, #0]
8780056c:	f042 0202 	orr.w	r2, r2, #2
87800570:	601a      	str	r2, [r3, #0]
87800572:	4770      	bx	lr
87800574:	f44f 4340 	mov.w	r3, #49152	; 0xc000
87800578:	f2c0 230a 	movt	r3, #522	; 0x20a
8780057c:	681a      	ldr	r2, [r3, #0]
8780057e:	f022 0202 	bic.w	r2, r2, #2
87800582:	601a      	str	r2, [r3, #0]
87800584:	4770      	bx	lr
87800586:	bf00      	nop

87800588 <gpio_pinread>:
87800588:	6800      	ldr	r0, [r0, #0]
8780058a:	40c8      	lsrs	r0, r1
8780058c:	f000 0001 	and.w	r0, r0, #1
87800590:	4770      	bx	lr
87800592:	bf00      	nop

87800594 <gpio_pinwrite>:
87800594:	2301      	movs	r3, #1
87800596:	b122      	cbz	r2, 878005a2 <gpio_pinwrite+0xe>
87800598:	6802      	ldr	r2, [r0, #0]
8780059a:	408b      	lsls	r3, r1
8780059c:	4313      	orrs	r3, r2
8780059e:	6003      	str	r3, [r0, #0]
878005a0:	4770      	bx	lr
878005a2:	6802      	ldr	r2, [r0, #0]
878005a4:	408b      	lsls	r3, r1
878005a6:	ea22 0303 	bic.w	r3, r2, r3
878005aa:	6003      	str	r3, [r0, #0]
878005ac:	4770      	bx	lr
878005ae:	bf00      	nop

878005b0 <gpio_intconfig>:
878005b0:	b430      	push	{r4, r5}
878005b2:	2301      	movs	r3, #1
878005b4:	69c4      	ldr	r4, [r0, #28]
878005b6:	408b      	lsls	r3, r1
878005b8:	290f      	cmp	r1, #15
878005ba:	f102 32ff 	add.w	r2, r2, #4294967295	; 0xffffffff
878005be:	bf88      	it	hi
878005c0:	3910      	subhi	r1, #16
878005c2:	ea24 0403 	bic.w	r4, r4, r3
878005c6:	61c4      	str	r4, [r0, #28]
878005c8:	bf94      	ite	ls
878005ca:	f100 040c 	addls.w	r4, r0, #12
878005ce:	f100 0410 	addhi.w	r4, r0, #16
878005d2:	2a04      	cmp	r2, #4
878005d4:	d80f      	bhi.n	878005f6 <gpio_intconfig+0x46>
878005d6:	e8df f002 	tbb	[pc, r2]
878005da:	231e0315 	tstcs	lr, #1409286144	; 0x54000000
878005de:	68200010 	stmdavs	r0!, {r4}
878005e2:	0049      	lsls	r1, r1, #1
878005e4:	2503      	movs	r5, #3
878005e6:	2301      	movs	r3, #1
878005e8:	408d      	lsls	r5, r1
878005ea:	fa03 f201 	lsl.w	r2, r3, r1
878005ee:	ea20 0305 	bic.w	r3, r0, r5
878005f2:	4313      	orrs	r3, r2
878005f4:	6023      	str	r3, [r4, #0]
878005f6:	bc30      	pop	{r4, r5}
878005f8:	4770      	bx	lr
878005fa:	69c2      	ldr	r2, [r0, #28]
878005fc:	bc30      	pop	{r4, r5}
878005fe:	4313      	orrs	r3, r2
87800600:	61c3      	str	r3, [r0, #28]
87800602:	4770      	bx	lr
87800604:	0049      	lsls	r1, r1, #1
87800606:	6822      	ldr	r2, [r4, #0]
87800608:	2303      	movs	r3, #3
8780060a:	408b      	lsls	r3, r1
8780060c:	ea22 0303 	bic.w	r3, r2, r3
87800610:	6023      	str	r3, [r4, #0]
87800612:	bc30      	pop	{r4, r5}
87800614:	4770      	bx	lr
87800616:	0049      	lsls	r1, r1, #1
87800618:	2503      	movs	r5, #3
8780061a:	6820      	ldr	r0, [r4, #0]
8780061c:	2302      	movs	r3, #2
8780061e:	e7e3      	b.n	878005e8 <gpio_intconfig+0x38>
87800620:	0049      	lsls	r1, r1, #1
87800622:	6822      	ldr	r2, [r4, #0]
87800624:	2303      	movs	r3, #3
87800626:	408b      	lsls	r3, r1
87800628:	4313      	orrs	r3, r2
8780062a:	6023      	str	r3, [r4, #0]
8780062c:	bc30      	pop	{r4, r5}
8780062e:	4770      	bx	lr

87800630 <gpio_init>:
87800630:	2301      	movs	r3, #1
87800632:	b470      	push	{r4, r5, r6}
87800634:	408b      	lsls	r3, r1
87800636:	6944      	ldr	r4, [r0, #20]
87800638:	6816      	ldr	r6, [r2, #0]
8780063a:	43dd      	mvns	r5, r3
8780063c:	402c      	ands	r4, r5
8780063e:	6144      	str	r4, [r0, #20]
87800640:	b15e      	cbz	r6, 8780065a <gpio_init+0x2a>
87800642:	6844      	ldr	r4, [r0, #4]
87800644:	431c      	orrs	r4, r3
87800646:	6044      	str	r4, [r0, #4]
87800648:	7914      	ldrb	r4, [r2, #4]
8780064a:	b16c      	cbz	r4, 87800668 <gpio_init+0x38>
8780064c:	6804      	ldr	r4, [r0, #0]
8780064e:	6892      	ldr	r2, [r2, #8]
87800650:	4323      	orrs	r3, r4
87800652:	bc70      	pop	{r4, r5, r6}
87800654:	6003      	str	r3, [r0, #0]
87800656:	f7ff bfab 	b.w	878005b0 <gpio_intconfig>
8780065a:	6843      	ldr	r3, [r0, #4]
8780065c:	6892      	ldr	r2, [r2, #8]
8780065e:	401d      	ands	r5, r3
87800660:	6045      	str	r5, [r0, #4]
87800662:	bc70      	pop	{r4, r5, r6}
87800664:	f7ff bfa4 	b.w	878005b0 <gpio_intconfig>
87800668:	6803      	ldr	r3, [r0, #0]
8780066a:	6892      	ldr	r2, [r2, #8]
8780066c:	401d      	ands	r5, r3
8780066e:	6005      	str	r5, [r0, #0]
87800670:	bc70      	pop	{r4, r5, r6}
87800672:	f7ff bf9d 	b.w	878005b0 <gpio_intconfig>
87800676:	bf00      	nop

87800678 <gpio_enableint>:
87800678:	6943      	ldr	r3, [r0, #20]
8780067a:	2201      	movs	r2, #1
8780067c:	408a      	lsls	r2, r1
8780067e:	4313      	orrs	r3, r2
87800680:	6143      	str	r3, [r0, #20]
87800682:	4770      	bx	lr

87800684 <gpio_disableint>:
87800684:	6943      	ldr	r3, [r0, #20]
87800686:	2201      	movs	r2, #1
87800688:	408a      	lsls	r2, r1
8780068a:	ea23 0302 	bic.w	r3, r3, r2
8780068e:	6143      	str	r3, [r0, #20]
87800690:	4770      	bx	lr
87800692:	bf00      	nop

87800694 <gpio_clearintflags>:
87800694:	6983      	ldr	r3, [r0, #24]
87800696:	2201      	movs	r2, #1
87800698:	408a      	lsls	r2, r1
8780069a:	4313      	orrs	r3, r2
8780069c:	6183      	str	r3, [r0, #24]
8780069e:	4770      	bx	lr

878006a0 <key_init>:
878006a0:	b570      	push	{r4, r5, r6, lr}
878006a2:	218c      	movs	r1, #140	; 0x8c
878006a4:	b084      	sub	sp, #16
878006a6:	f44f 7346 	mov.w	r3, #792	; 0x318
878006aa:	f2c0 230e 	movt	r3, #526	; 0x20e
878006ae:	aa04      	add	r2, sp, #16
878006b0:	f2c0 210e 	movt	r1, #526	; 0x20e
878006b4:	2605      	movs	r6, #5
878006b6:	f24f 0580 	movw	r5, #61568	; 0xf080
878006ba:	2400      	movs	r4, #0
878006bc:	f44f 4040 	mov.w	r0, #49152	; 0xc000
878006c0:	600e      	str	r6, [r1, #0]
878006c2:	f2c0 2009 	movt	r0, #521	; 0x209
878006c6:	601d      	str	r5, [r3, #0]
878006c8:	2112      	movs	r1, #18
878006ca:	f842 4d0c 	str.w	r4, [r2, #-12]!
878006ce:	f7ff ffaf 	bl	87800630 <gpio_init>
878006d2:	b004      	add	sp, #16
878006d4:	bd70      	pop	{r4, r5, r6, pc}
878006d6:	bf00      	nop

878006d8 <key_getvalue>:
878006d8:	b538      	push	{r3, r4, r5, lr}
878006da:	f642 4460 	movw	r4, #11360	; 0x2c60
878006de:	f2c8 7480 	movt	r4, #34688	; 0x8780
878006e2:	7823      	ldrb	r3, [r4, #0]
878006e4:	2b01      	cmp	r3, #1
878006e6:	d00b      	beq.n	87800700 <key_getvalue+0x28>
878006e8:	f44f 4040 	mov.w	r0, #49152	; 0xc000
878006ec:	2112      	movs	r1, #18
878006ee:	f2c0 2009 	movt	r0, #521	; 0x209
878006f2:	f7ff ff49 	bl	87800588 <gpio_pinread>
878006f6:	2801      	cmp	r0, #1
878006f8:	bf08      	it	eq
878006fa:	7020      	strbeq	r0, [r4, #0]
878006fc:	2000      	movs	r0, #0
878006fe:	bd38      	pop	{r3, r4, r5, pc}
87800700:	f44f 4040 	mov.w	r0, #49152	; 0xc000
87800704:	2112      	movs	r1, #18
87800706:	f2c0 2009 	movt	r0, #521	; 0x209
8780070a:	f7ff ff3d 	bl	87800588 <gpio_pinread>
8780070e:	4605      	mov	r5, r0
87800710:	2800      	cmp	r0, #0
87800712:	d1e9      	bne.n	878006e8 <key_getvalue+0x10>
87800714:	200a      	movs	r0, #10
87800716:	f7ff fef1 	bl	878004fc <delay>
8780071a:	f44f 4040 	mov.w	r0, #49152	; 0xc000
8780071e:	2112      	movs	r1, #18
87800720:	f2c0 2009 	movt	r0, #521	; 0x209
87800724:	7025      	strb	r5, [r4, #0]
87800726:	f7ff ff2f 	bl	87800588 <gpio_pinread>
8780072a:	fab0 f080 	clz	r0, r0
8780072e:	0940      	lsrs	r0, r0, #5
87800730:	bd38      	pop	{r3, r4, r5, pc}
87800732:	bf00      	nop

87800734 <gpio1_io18_irqhandler>:
87800734:	b508      	push	{r3, lr}
87800736:	200a      	movs	r0, #10
87800738:	f7ff fee0 	bl	878004fc <delay>
8780073c:	f44f 4040 	mov.w	r0, #49152	; 0xc000
87800740:	2112      	movs	r1, #18
87800742:	f2c0 2009 	movt	r0, #521	; 0x209
87800746:	f7ff ff1f 	bl	87800588 <gpio_pinread>
8780074a:	b958      	cbnz	r0, 87800764 <gpio1_io18_irqhandler+0x30>
8780074c:	f642 5264 	movw	r2, #11620	; 0x2d64
87800750:	f2c8 7280 	movt	r2, #34688	; 0x8780
87800754:	7813      	ldrb	r3, [r2, #0]
87800756:	fab3 f383 	clz	r3, r3
8780075a:	095b      	lsrs	r3, r3, #5
8780075c:	4618      	mov	r0, r3
8780075e:	7013      	strb	r3, [r2, #0]
87800760:	f7ff fefc 	bl	8780055c <beep_switch>
87800764:	f44f 4040 	mov.w	r0, #49152	; 0xc000
87800768:	2112      	movs	r1, #18
8780076a:	f2c0 2009 	movt	r0, #521	; 0x209
8780076e:	e8bd 4008 	ldmia.w	sp!, {r3, lr}
87800772:	f7ff bf8f 	b.w	87800694 <gpio_clearintflags>
87800776:	bf00      	nop

87800778 <exit_init>:
87800778:	b570      	push	{r4, r5, r6, lr}
8780077a:	228c      	movs	r2, #140	; 0x8c
8780077c:	f44f 7346 	mov.w	r3, #792	; 0x318
87800780:	f44f 4440 	mov.w	r4, #49152	; 0xc000
87800784:	b084      	sub	sp, #16
87800786:	2604      	movs	r6, #4
87800788:	f2c0 220e 	movt	r2, #526	; 0x20e
8780078c:	2005      	movs	r0, #5
8780078e:	f2c0 230e 	movt	r3, #526	; 0x20e
87800792:	f24f 0180 	movw	r1, #61568	; 0xf080
87800796:	f2c0 2409 	movt	r4, #521	; 0x209
8780079a:	6010      	str	r0, [r2, #0]
8780079c:	2500      	movs	r5, #0
8780079e:	6019      	str	r1, [r3, #0]
878007a0:	4620      	mov	r0, r4
878007a2:	2301      	movs	r3, #1
878007a4:	eb0d 0206 	add.w	r2, sp, r6
878007a8:	2112      	movs	r1, #18
878007aa:	9501      	str	r5, [sp, #4]
878007ac:	9603      	str	r6, [sp, #12]
878007ae:	f88d 3008 	strb.w	r3, [sp, #8]
878007b2:	f7ff ff3d 	bl	87800630 <gpio_init>
878007b6:	ee9f 3f10 	mrc	15, 4, r3, cr15, cr0, {0}
878007ba:	0c1b      	lsrs	r3, r3, #16
878007bc:	f241 100c 	movw	r0, #4364	; 0x110c
878007c0:	2608      	movs	r6, #8
878007c2:	041b      	lsls	r3, r3, #16
878007c4:	f240 7135 	movw	r1, #1845	; 0x735
878007c8:	462a      	mov	r2, r5
878007ca:	501e      	str	r6, [r3, r0]
878007cc:	f2c8 7180 	movt	r1, #34688	; 0x8780
878007d0:	2063      	movs	r0, #99	; 0x63
878007d2:	f000 f861 	bl	87800898 <system_register_irqhandler>
878007d6:	4620      	mov	r0, r4
878007d8:	2112      	movs	r1, #18
878007da:	f7ff ff4d 	bl	87800678 <gpio_enableint>
878007de:	b004      	add	sp, #16
878007e0:	bd70      	pop	{r4, r5, r6, pc}
878007e2:	bf00      	nop

878007e4 <default_irqhandler>:
878007e4:	e7fe      	b.n	878007e4 <default_irqhandler>
878007e6:	bf00      	nop

878007e8 <int_init>:
878007e8:	b5f0      	push	{r4, r5, r6, r7, lr}
878007ea:	ee9f 4f10 	mrc	15, 4, r4, cr15, cr0, {0}
878007ee:	0c24      	lsrs	r4, r4, #16
878007f0:	f241 0204 	movw	r2, #4100	; 0x1004
878007f4:	2300      	movs	r3, #0
878007f6:	0424      	lsls	r4, r4, #16
878007f8:	f04f 30ff 	mov.w	r0, #4294967295	; 0xffffffff
878007fc:	58a1      	ldr	r1, [r4, r2]
878007fe:	f001 011f 	and.w	r1, r1, #31
87800802:	3101      	adds	r1, #1
87800804:	f503 628c 	add.w	r2, r3, #1120	; 0x460
87800808:	3301      	adds	r3, #1
8780080a:	4299      	cmp	r1, r3
8780080c:	f844 0022 	str.w	r0, [r4, r2, lsl #2]
87800810:	d1f8      	bne.n	87800804 <int_init+0x1c>
87800812:	f242 0604 	movw	r6, #8196	; 0x2004
87800816:	27f8      	movs	r7, #248	; 0xf8
87800818:	f642 5368 	movw	r3, #11624	; 0x2d68
8780081c:	f240 72e5 	movw	r2, #2021	; 0x7e5
87800820:	51a7      	str	r7, [r4, r6]
87800822:	2500      	movs	r5, #0
87800824:	f2c8 7380 	movt	r3, #34688	; 0x8780
87800828:	f242 0708 	movw	r7, #8200	; 0x2008
8780082c:	f04f 0e02 	mov.w	lr, #2
87800830:	f2c8 7280 	movt	r2, #34688	; 0x8780
87800834:	f844 e007 	str.w	lr, [r4, r7]
87800838:	f504 5680 	add.w	r6, r4, #4096	; 0x1000
8780083c:	f203 5004 	addw	r0, r3, #1284	; 0x504
87800840:	4629      	mov	r1, r5
87800842:	f843 5b04 	str.w	r5, [r3], #4
87800846:	f504 5400 	add.w	r4, r4, #8192	; 0x2000
8780084a:	2501      	movs	r5, #1
8780084c:	6035      	str	r5, [r6, #0]
8780084e:	6025      	str	r5, [r4, #0]
87800850:	601a      	str	r2, [r3, #0]
87800852:	3308      	adds	r3, #8
87800854:	f843 1c04 	str.w	r1, [r3, #-4]
87800858:	4283      	cmp	r3, r0
8780085a:	d1f9      	bne.n	87800850 <int_init+0x68>
8780085c:	2300      	movs	r3, #0
8780085e:	f2c8 7380 	movt	r3, #34688	; 0x8780
87800862:	ee0c 3f10 	mcr	15, 0, r3, cr12, cr0, {0}
87800866:	bdf0      	pop	{r4, r5, r6, r7, pc}

87800868 <system_irqtable_init>:
87800868:	b410      	push	{r4}
8780086a:	f240 72e5 	movw	r2, #2021	; 0x7e5
8780086e:	2400      	movs	r4, #0
87800870:	f642 5368 	movw	r3, #11624	; 0x2d68
87800874:	4621      	mov	r1, r4
87800876:	f2c8 7280 	movt	r2, #34688	; 0x8780
8780087a:	f2c8 7380 	movt	r3, #34688	; 0x8780
8780087e:	f203 5004 	addw	r0, r3, #1284	; 0x504
87800882:	f843 4b04 	str.w	r4, [r3], #4
87800886:	601a      	str	r2, [r3, #0]
87800888:	3308      	adds	r3, #8
8780088a:	f843 1c04 	str.w	r1, [r3, #-4]
8780088e:	4283      	cmp	r3, r0
87800890:	d1f9      	bne.n	87800886 <system_irqtable_init+0x1e>
87800892:	f85d 4b04 	ldr.w	r4, [sp], #4
87800896:	4770      	bx	lr

87800898 <system_register_irqhandler>:
87800898:	f642 5368 	movw	r3, #11624	; 0x2d68
8780089c:	f2c8 7380 	movt	r3, #34688	; 0x8780
878008a0:	eb03 00c0 	add.w	r0, r3, r0, lsl #3
878008a4:	6041      	str	r1, [r0, #4]
878008a6:	6082      	str	r2, [r0, #8]
878008a8:	4770      	bx	lr
878008aa:	bf00      	nop

878008ac <system_irqhandler>:
878008ac:	b538      	push	{r3, r4, r5, lr}
878008ae:	f3c0 0309 	ubfx	r3, r0, #0, #10
878008b2:	2b9f      	cmp	r3, #159	; 0x9f
878008b4:	d80f      	bhi.n	878008d6 <system_irqhandler+0x2a>
878008b6:	f642 5468 	movw	r4, #11624	; 0x2d68
878008ba:	4618      	mov	r0, r3
878008bc:	f2c8 7480 	movt	r4, #34688	; 0x8780
878008c0:	6822      	ldr	r2, [r4, #0]
878008c2:	eb04 03c3 	add.w	r3, r4, r3, lsl #3
878008c6:	685d      	ldr	r5, [r3, #4]
878008c8:	3201      	adds	r2, #1
878008ca:	6899      	ldr	r1, [r3, #8]
878008cc:	6022      	str	r2, [r4, #0]
878008ce:	47a8      	blx	r5
878008d0:	6823      	ldr	r3, [r4, #0]
878008d2:	3b01      	subs	r3, #1
878008d4:	6023      	str	r3, [r4, #0]
878008d6:	bd38      	pop	{r3, r4, r5, pc}

878008d8 <epit1_irqhandler>:
878008d8:	b508      	push	{r3, lr}
878008da:	f243 236c 	movw	r3, #12908	; 0x326c
878008de:	f2c8 7380 	movt	r3, #34688	; 0x8780
878008e2:	2200      	movs	r2, #0
878008e4:	f2c0 220d 	movt	r2, #525	; 0x20d
878008e8:	7819      	ldrb	r1, [r3, #0]
878008ea:	fab1 f181 	clz	r1, r1
878008ee:	0949      	lsrs	r1, r1, #5
878008f0:	7019      	strb	r1, [r3, #0]
878008f2:	6853      	ldr	r3, [r2, #4]
878008f4:	07db      	lsls	r3, r3, #31
878008f6:	d502      	bpl.n	878008fe <epit1_irqhandler+0x26>
878008f8:	2000      	movs	r0, #0
878008fa:	f7ff fd8b 	bl	87800414 <led_switch>
878008fe:	2300      	movs	r3, #0
87800900:	f2c0 230d 	movt	r3, #525	; 0x20d
87800904:	685a      	ldr	r2, [r3, #4]
87800906:	f042 0201 	orr.w	r2, r2, #1
8780090a:	605a      	str	r2, [r3, #4]
8780090c:	bd08      	pop	{r3, pc}
8780090e:	bf00      	nop

87800910 <epit1_init>:
87800910:	b538      	push	{r3, r4, r5, lr}
87800912:	f640 73ff 	movw	r3, #4095	; 0xfff
87800916:	4298      	cmp	r0, r3
87800918:	f04f 0400 	mov.w	r4, #0
8780091c:	bf28      	it	cs
8780091e:	4618      	movcs	r0, r3
87800920:	f2c0 240d 	movt	r4, #525	; 0x20d
87800924:	0100      	lsls	r0, r0, #4
87800926:	2200      	movs	r2, #0
87800928:	6022      	str	r2, [r4, #0]
8780092a:	f040 7080 	orr.w	r0, r0, #16777216	; 0x1000000
8780092e:	f040 000e 	orr.w	r0, r0, #14
87800932:	6020      	str	r0, [r4, #0]
87800934:	60a1      	str	r1, [r4, #8]
87800936:	60e2      	str	r2, [r4, #12]
87800938:	ee9f 3f10 	mrc	15, 4, r3, cr15, cr0, {0}
8780093c:	0c1b      	lsrs	r3, r3, #16
8780093e:	f241 1008 	movw	r0, #4360	; 0x1108
87800942:	f04f 7580 	mov.w	r5, #16777216	; 0x1000000
87800946:	041b      	lsls	r3, r3, #16
87800948:	f640 01d9 	movw	r1, #2265	; 0x8d9
8780094c:	f2c8 7180 	movt	r1, #34688	; 0x8780
87800950:	501d      	str	r5, [r3, r0]
87800952:	2058      	movs	r0, #88	; 0x58
87800954:	f7ff ffa0 	bl	87800898 <system_register_irqhandler>
87800958:	6823      	ldr	r3, [r4, #0]
8780095a:	f043 0301 	orr.w	r3, r3, #1
8780095e:	6023      	str	r3, [r4, #0]
87800960:	bd38      	pop	{r3, r4, r5, pc}
87800962:	bf00      	nop

87800964 <filtertimer_irqhandler>:
87800964:	b508      	push	{r3, lr}
87800966:	2300      	movs	r3, #0
87800968:	f2c0 230d 	movt	r3, #525	; 0x20d
8780096c:	685a      	ldr	r2, [r3, #4]
8780096e:	07d2      	lsls	r2, r2, #31
87800970:	d407      	bmi.n	87800982 <filtertimer_irqhandler+0x1e>
87800972:	2300      	movs	r3, #0
87800974:	f2c0 230d 	movt	r3, #525	; 0x20d
87800978:	685a      	ldr	r2, [r3, #4]
8780097a:	f042 0201 	orr.w	r2, r2, #1
8780097e:	605a      	str	r2, [r3, #4]
87800980:	bd08      	pop	{r3, pc}
87800982:	681a      	ldr	r2, [r3, #0]
87800984:	f44f 4040 	mov.w	r0, #49152	; 0xc000
87800988:	f2c0 2009 	movt	r0, #521	; 0x209
8780098c:	2112      	movs	r1, #18
8780098e:	f022 0201 	bic.w	r2, r2, #1
87800992:	601a      	str	r2, [r3, #0]
87800994:	f7ff fdf8 	bl	87800588 <gpio_pinread>
87800998:	2800      	cmp	r0, #0
8780099a:	d1ea      	bne.n	87800972 <filtertimer_irqhandler+0xe>
8780099c:	f243 226d 	movw	r2, #12909	; 0x326d
878009a0:	f2c8 7280 	movt	r2, #34688	; 0x8780
878009a4:	7813      	ldrb	r3, [r2, #0]
878009a6:	fab3 f383 	clz	r3, r3
878009aa:	095b      	lsrs	r3, r3, #5
878009ac:	4618      	mov	r0, r3
878009ae:	7013      	strb	r3, [r2, #0]
878009b0:	f7ff fdd4 	bl	8780055c <beep_switch>
878009b4:	e7dd      	b.n	87800972 <filtertimer_irqhandler+0xe>
878009b6:	bf00      	nop

878009b8 <gpio1_16_31_irqhandler>:
878009b8:	2300      	movs	r3, #0
878009ba:	b410      	push	{r4}
878009bc:	f2c0 230d 	movt	r3, #525	; 0x20d
878009c0:	f44f 5491 	mov.w	r4, #4640	; 0x1220
878009c4:	f2c0 040a 	movt	r4, #10
878009c8:	f44f 4040 	mov.w	r0, #49152	; 0xc000
878009cc:	681a      	ldr	r2, [r3, #0]
878009ce:	f2c0 2009 	movt	r0, #521	; 0x209
878009d2:	2112      	movs	r1, #18
878009d4:	f022 0201 	bic.w	r2, r2, #1
878009d8:	601a      	str	r2, [r3, #0]
878009da:	609c      	str	r4, [r3, #8]
878009dc:	681a      	ldr	r2, [r3, #0]
878009de:	f85d 4b04 	ldr.w	r4, [sp], #4
878009e2:	f042 0201 	orr.w	r2, r2, #1
878009e6:	601a      	str	r2, [r3, #0]
878009e8:	f7ff be54 	b.w	87800694 <gpio_clearintflags>

878009ec <filtertimer_init>:
878009ec:	2300      	movs	r3, #0
878009ee:	210e      	movs	r1, #14
878009f0:	f2c0 230d 	movt	r3, #525	; 0x20d
878009f4:	2200      	movs	r2, #0
878009f6:	f2c0 1100 	movt	r1, #256	; 0x100
878009fa:	b410      	push	{r4}
878009fc:	601a      	str	r2, [r3, #0]
878009fe:	6019      	str	r1, [r3, #0]
87800a00:	6098      	str	r0, [r3, #8]
87800a02:	60da      	str	r2, [r3, #12]
87800a04:	ee9f 3f10 	mrc	15, 4, r3, cr15, cr0, {0}
87800a08:	0c1b      	lsrs	r3, r3, #16
87800a0a:	f241 1008 	movw	r0, #4360	; 0x1108
87800a0e:	f04f 7480 	mov.w	r4, #16777216	; 0x1000000
87800a12:	041b      	lsls	r3, r3, #16
87800a14:	f640 1165 	movw	r1, #2405	; 0x965
87800a18:	f2c8 7180 	movt	r1, #34688	; 0x8780
87800a1c:	501c      	str	r4, [r3, r0]
87800a1e:	2058      	movs	r0, #88	; 0x58
87800a20:	f85d 4b04 	ldr.w	r4, [sp], #4
87800a24:	f7ff bf38 	b.w	87800898 <system_register_irqhandler>

87800a28 <filterkey_init>:
87800a28:	b570      	push	{r4, r5, r6, lr}
87800a2a:	228c      	movs	r2, #140	; 0x8c
87800a2c:	f44f 7346 	mov.w	r3, #792	; 0x318
87800a30:	f44f 4440 	mov.w	r4, #49152	; 0xc000
87800a34:	b084      	sub	sp, #16
87800a36:	2604      	movs	r6, #4
87800a38:	f2c0 220e 	movt	r2, #526	; 0x20e
87800a3c:	2005      	movs	r0, #5
87800a3e:	f2c0 230e 	movt	r3, #526	; 0x20e
87800a42:	f24f 0180 	movw	r1, #61568	; 0xf080
87800a46:	f2c0 2409 	movt	r4, #521	; 0x209
87800a4a:	6010      	str	r0, [r2, #0]
87800a4c:	2500      	movs	r5, #0
87800a4e:	6019      	str	r1, [r3, #0]
87800a50:	4620      	mov	r0, r4
87800a52:	2301      	movs	r3, #1
87800a54:	eb0d 0206 	add.w	r2, sp, r6
87800a58:	2112      	movs	r1, #18
87800a5a:	9501      	str	r5, [sp, #4]
87800a5c:	9603      	str	r6, [sp, #12]
87800a5e:	f88d 3008 	strb.w	r3, [sp, #8]
87800a62:	f7ff fde5 	bl	87800630 <gpio_init>
87800a66:	ee9f 3f10 	mrc	15, 4, r3, cr15, cr0, {0}
87800a6a:	0c1b      	lsrs	r3, r3, #16
87800a6c:	f241 100c 	movw	r0, #4364	; 0x110c
87800a70:	2608      	movs	r6, #8
87800a72:	041b      	lsls	r3, r3, #16
87800a74:	f640 11b9 	movw	r1, #2489	; 0x9b9
87800a78:	462a      	mov	r2, r5
87800a7a:	501e      	str	r6, [r3, r0]
87800a7c:	f2c8 7180 	movt	r1, #34688	; 0x8780
87800a80:	2063      	movs	r0, #99	; 0x63
87800a82:	f7ff ff09 	bl	87800898 <system_register_irqhandler>
87800a86:	4620      	mov	r0, r4
87800a88:	2112      	movs	r1, #18
87800a8a:	f7ff fdf5 	bl	87800678 <gpio_enableint>
87800a8e:	f44f 5091 	mov.w	r0, #4640	; 0x1220
87800a92:	f2c0 000a 	movt	r0, #10
87800a96:	f7ff ffa9 	bl	878009ec <filtertimer_init>
87800a9a:	b004      	add	sp, #16
87800a9c:	bd70      	pop	{r4, r5, r6, pc}
87800a9e:	bf00      	nop

87800aa0 <filtertimer_stop>:
87800aa0:	2300      	movs	r3, #0
87800aa2:	f2c0 230d 	movt	r3, #525	; 0x20d
87800aa6:	681a      	ldr	r2, [r3, #0]
87800aa8:	f022 0201 	bic.w	r2, r2, #1
87800aac:	601a      	str	r2, [r3, #0]
87800aae:	4770      	bx	lr

87800ab0 <filtertimer_restart>:
87800ab0:	2300      	movs	r3, #0
87800ab2:	f2c0 230d 	movt	r3, #525	; 0x20d
87800ab6:	681a      	ldr	r2, [r3, #0]
87800ab8:	f022 0201 	bic.w	r2, r2, #1
87800abc:	601a      	str	r2, [r3, #0]
87800abe:	6098      	str	r0, [r3, #8]
87800ac0:	681a      	ldr	r2, [r3, #0]
87800ac2:	f042 0201 	orr.w	r2, r2, #1
87800ac6:	601a      	str	r2, [r3, #0]
87800ac8:	4770      	bx	lr
87800aca:	bf00      	nop

87800acc <uart_init>:
87800acc:	2300      	movs	r3, #0
87800ace:	2084      	movs	r0, #132	; 0x84
87800ad0:	b4f0      	push	{r4, r5, r6, r7}
87800ad2:	f2c0 200e 	movt	r0, #526	; 0x20e
87800ad6:	461e      	mov	r6, r3
87800ad8:	2188      	movs	r1, #136	; 0x88
87800ada:	f240 6524 	movw	r5, #1572	; 0x624
87800ade:	f44f 7444 	mov.w	r4, #784	; 0x310
87800ae2:	f44f 7245 	mov.w	r2, #788	; 0x314
87800ae6:	6006      	str	r6, [r0, #0]
87800ae8:	f2c0 2302 	movt	r3, #514	; 0x202
87800aec:	f2c0 210e 	movt	r1, #526	; 0x20e
87800af0:	f2c0 220e 	movt	r2, #526	; 0x20e
87800af4:	f241 00b0 	movw	r0, #4272	; 0x10b0
87800af8:	f2c0 250e 	movt	r5, #526	; 0x20e
87800afc:	f2c0 240e 	movt	r4, #526	; 0x20e
87800b00:	2703      	movs	r7, #3
87800b02:	600e      	str	r6, [r1, #0]
87800b04:	602f      	str	r7, [r5, #0]
87800b06:	4619      	mov	r1, r3
87800b08:	6020      	str	r0, [r4, #0]
87800b0a:	6010      	str	r0, [r2, #0]
87800b0c:	f8d3 2080 	ldr.w	r2, [r3, #128]	; 0x80
87800b10:	f022 0201 	bic.w	r2, r2, #1
87800b14:	f8c3 2080 	str.w	r2, [r3, #128]	; 0x80
87800b18:	f8d3 2084 	ldr.w	r2, [r3, #132]	; 0x84
87800b1c:	f022 0201 	bic.w	r2, r2, #1
87800b20:	f8c3 2084 	str.w	r2, [r3, #132]	; 0x84
87800b24:	f8d1 2084 	ldr.w	r2, [r1, #132]	; 0x84
87800b28:	2300      	movs	r3, #0
87800b2a:	f2c0 2302 	movt	r3, #514	; 0x202
87800b2e:	07d2      	lsls	r2, r2, #31
87800b30:	d5f8      	bpl.n	87800b24 <uart_init+0x58>
87800b32:	2200      	movs	r2, #0
87800b34:	f44f 7420 	mov.w	r4, #640	; 0x280
87800b38:	f8c3 2080 	str.w	r2, [r3, #128]	; 0x80
87800b3c:	2047      	movs	r0, #71	; 0x47
87800b3e:	f8d3 2080 	ldr.w	r2, [r3, #128]	; 0x80
87800b42:	f640 4134 	movw	r1, #3124	; 0xc34
87800b46:	f422 4280 	bic.w	r2, r2, #16384	; 0x4000
87800b4a:	f8c3 2080 	str.w	r2, [r3, #128]	; 0x80
87800b4e:	f8d3 2084 	ldr.w	r2, [r3, #132]	; 0x84
87800b52:	f442 4280 	orr.w	r2, r2, #16384	; 0x4000
87800b56:	f042 0226 	orr.w	r2, r2, #38	; 0x26
87800b5a:	f8c3 2084 	str.w	r2, [r3, #132]	; 0x84
87800b5e:	f8d3 2088 	ldr.w	r2, [r3, #136]	; 0x88
87800b62:	f042 0204 	orr.w	r2, r2, #4
87800b66:	f8c3 2088 	str.w	r2, [r3, #136]	; 0x88
87800b6a:	f8c3 4090 	str.w	r4, [r3, #144]	; 0x90
87800b6e:	f8c3 00a4 	str.w	r0, [r3, #164]	; 0xa4
87800b72:	f8c3 10a8 	str.w	r1, [r3, #168]	; 0xa8
87800b76:	f8d3 2080 	ldr.w	r2, [r3, #128]	; 0x80
87800b7a:	bcf0      	pop	{r4, r5, r6, r7}
87800b7c:	f042 0201 	orr.w	r2, r2, #1
87800b80:	f8c3 2080 	str.w	r2, [r3, #128]	; 0x80
87800b84:	4770      	bx	lr
87800b86:	bf00      	nop

87800b88 <uart_io_init>:
87800b88:	b4f0      	push	{r4, r5, r6, r7}
87800b8a:	f240 6024 	movw	r0, #1572	; 0x624
87800b8e:	2684      	movs	r6, #132	; 0x84
87800b90:	2488      	movs	r4, #136	; 0x88
87800b92:	f44f 7144 	mov.w	r1, #784	; 0x310
87800b96:	f44f 7345 	mov.w	r3, #788	; 0x314
87800b9a:	2500      	movs	r5, #0
87800b9c:	f2c0 260e 	movt	r6, #526	; 0x20e
87800ba0:	f2c0 240e 	movt	r4, #526	; 0x20e
87800ba4:	2703      	movs	r7, #3
87800ba6:	f241 02b0 	movw	r2, #4272	; 0x10b0
87800baa:	f2c0 200e 	movt	r0, #526	; 0x20e
87800bae:	f2c0 210e 	movt	r1, #526	; 0x20e
87800bb2:	f2c0 230e 	movt	r3, #526	; 0x20e
87800bb6:	6035      	str	r5, [r6, #0]
87800bb8:	6025      	str	r5, [r4, #0]
87800bba:	6007      	str	r7, [r0, #0]
87800bbc:	600a      	str	r2, [r1, #0]
87800bbe:	bcf0      	pop	{r4, r5, r6, r7}
87800bc0:	601a      	str	r2, [r3, #0]
87800bc2:	4770      	bx	lr

87800bc4 <uart_setbaudrate>:
87800bc4:	e92d 4ff0 	stmdb	sp!, {r4, r5, r6, r7, r8, r9, sl, fp, lr}
87800bc8:	010d      	lsls	r5, r1, #4
87800bca:	b085      	sub	sp, #20
87800bcc:	460f      	mov	r7, r1
87800bce:	4682      	mov	sl, r0
87800bd0:	4691      	mov	r9, r2
87800bd2:	f000 80f1 	beq.w	87800db8 <uart_setbaudrate+0x1f4>
87800bd6:	462c      	mov	r4, r5
87800bd8:	4610      	mov	r0, r2
87800bda:	e000      	b.n	87800bde <uart_setbaudrate+0x1a>
87800bdc:	460c      	mov	r4, r1
87800bde:	4621      	mov	r1, r4
87800be0:	f001 fef4 	bl	878029cc <__aeabi_uidivmod>
87800be4:	4620      	mov	r0, r4
87800be6:	2900      	cmp	r1, #0
87800be8:	d1f8      	bne.n	87800bdc <uart_setbaudrate+0x18>
87800bea:	4621      	mov	r1, r4
87800bec:	4648      	mov	r0, r9
87800bee:	f001 fdbf 	bl	87802770 <__udivsi3>
87800bf2:	4621      	mov	r1, r4
87800bf4:	4606      	mov	r6, r0
87800bf6:	4628      	mov	r0, r5
87800bf8:	f001 fdba 	bl	87802770 <__udivsi3>
87800bfc:	f64f 73f9 	movw	r3, #65529	; 0xfff9
87800c00:	4605      	mov	r5, r0
87800c02:	f2c0 0306 	movt	r3, #6
87800c06:	429e      	cmp	r6, r3
87800c08:	bf98      	it	ls
87800c0a:	f5b0 3f80 	cmpls.w	r0, #65536	; 0x10000
87800c0e:	bf2c      	ite	cs
87800c10:	2301      	movcs	r3, #1
87800c12:	2300      	movcc	r3, #0
87800c14:	d277      	bcs.n	87800d06 <uart_setbaudrate+0x142>
87800c16:	f248 0101 	movw	r1, #32769	; 0x8001
87800c1a:	1e72      	subs	r2, r6, #1
87800c1c:	f2c8 0100 	movt	r1, #32768	; 0x8000
87800c20:	9301      	str	r3, [sp, #4]
87800c22:	fba2 2301 	umull	r2, r3, r2, r1
87800c26:	ea4f 1b06 	mov.w	fp, r6, lsl #4
87800c2a:	4680      	mov	r8, r0
87800c2c:	0bda      	lsrs	r2, r3, #15
87800c2e:	1e53      	subs	r3, r2, #1
87800c30:	3201      	adds	r2, #1
87800c32:	9203      	str	r2, [sp, #12]
87800c34:	2b05      	cmp	r3, #5
87800c36:	4648      	mov	r0, r9
87800c38:	bf96      	itet	ls
87800c3a:	f642 4228 	movwls	r2, #11304	; 0x2c28
87800c3e:	2305      	movhi	r3, #5
87800c40:	f2c8 7280 	movtls	r2, #34688	; 0x8780
87800c44:	f04f 0100 	mov.w	r1, #0
87800c48:	bf98      	it	ls
87800c4a:	f852 3023 	ldrls.w	r3, [r2, r3, lsl #2]
87800c4e:	9302      	str	r3, [sp, #8]
87800c50:	f1bb 0f00 	cmp.w	fp, #0
87800c54:	f000 80ae 	beq.w	87800db4 <uart_setbaudrate+0x1f0>
87800c58:	465c      	mov	r4, fp
87800c5a:	e000      	b.n	87800c5e <uart_setbaudrate+0x9a>
87800c5c:	4614      	mov	r4, r2
87800c5e:	4622      	mov	r2, r4
87800c60:	2300      	movs	r3, #0
87800c62:	f001 fec1 	bl	878029e8 <__aeabi_uldivmod>
87800c66:	4620      	mov	r0, r4
87800c68:	2100      	movs	r1, #0
87800c6a:	2a00      	cmp	r2, #0
87800c6c:	d1f6      	bne.n	87800c5c <uart_setbaudrate+0x98>
87800c6e:	4648      	mov	r0, r9
87800c70:	4621      	mov	r1, r4
87800c72:	f001 fd7d 	bl	87802770 <__udivsi3>
87800c76:	4603      	mov	r3, r0
87800c78:	9a01      	ldr	r2, [sp, #4]
87800c7a:	fba3 8908 	umull	r8, r9, r3, r8
87800c7e:	4621      	mov	r1, r4
87800c80:	4658      	mov	r0, fp
87800c82:	fb03 9902 	mla	r9, r3, r2, r9
87800c86:	f001 fd73 	bl	87802770 <__udivsi3>
87800c8a:	2300      	movs	r3, #0
87800c8c:	4602      	mov	r2, r0
87800c8e:	4649      	mov	r1, r9
87800c90:	4640      	mov	r0, r8
87800c92:	f001 fea9 	bl	878029e8 <__aeabi_uldivmod>
87800c96:	2300      	movs	r3, #0
87800c98:	4299      	cmp	r1, r3
87800c9a:	bf08      	it	eq
87800c9c:	42b8      	cmpeq	r0, r7
87800c9e:	d32e      	bcc.n	87800cfe <uart_setbaudrate+0x13a>
87800ca0:	1bc0      	subs	r0, r0, r7
87800ca2:	eb61 0103 	sbc.w	r1, r1, r3
87800ca6:	f248 521f 	movw	r2, #34079	; 0x851f
87800caa:	f2c5 12eb 	movt	r2, #20971	; 0x51eb
87800cae:	fba7 2302 	umull	r2, r3, r7, r2
87800cb2:	095a      	lsrs	r2, r3, #5
87800cb4:	2300      	movs	r3, #0
87800cb6:	4299      	cmp	r1, r3
87800cb8:	eb02 0242 	add.w	r2, r2, r2, lsl #1
87800cbc:	bf08      	it	eq
87800cbe:	4290      	cmpeq	r0, r2
87800cc0:	d21a      	bcs.n	87800cf8 <uart_setbaudrate+0x134>
87800cc2:	9b02      	ldr	r3, [sp, #8]
87800cc4:	3d01      	subs	r5, #1
87800cc6:	f8da 1090 	ldr.w	r1, [sl, #144]	; 0x90
87800cca:	b2ad      	uxth	r5, r5
87800ccc:	4630      	mov	r0, r6
87800cce:	01db      	lsls	r3, r3, #7
87800cd0:	f403 7260 	and.w	r2, r3, #896	; 0x380
87800cd4:	f421 7360 	bic.w	r3, r1, #896	; 0x380
87800cd8:	f8ca 3090 	str.w	r3, [sl, #144]	; 0x90
87800cdc:	f8da 3090 	ldr.w	r3, [sl, #144]	; 0x90
87800ce0:	9903      	ldr	r1, [sp, #12]
87800ce2:	4313      	orrs	r3, r2
87800ce4:	f8ca 3090 	str.w	r3, [sl, #144]	; 0x90
87800ce8:	f8ca 50a4 	str.w	r5, [sl, #164]	; 0xa4
87800cec:	f001 fd40 	bl	87802770 <__udivsi3>
87800cf0:	3801      	subs	r0, #1
87800cf2:	b280      	uxth	r0, r0
87800cf4:	f8ca 00a8 	str.w	r0, [sl, #168]	; 0xa8
87800cf8:	b005      	add	sp, #20
87800cfa:	e8bd 8ff0 	ldmia.w	sp!, {r4, r5, r6, r7, r8, r9, sl, fp, pc}
87800cfe:	1a38      	subs	r0, r7, r0
87800d00:	eb63 0101 	sbc.w	r1, r3, r1
87800d04:	e7cf      	b.n	87800ca6 <uart_setbaudrate+0xe2>
87800d06:	f646 52b9 	movw	r2, #28089	; 0x6db9
87800d0a:	1e71      	subs	r1, r6, #1
87800d0c:	f2c2 4293 	movt	r2, #9363	; 0x2493
87800d10:	f248 0401 	movw	r4, #32769	; 0x8001
87800d14:	fba1 2302 	umull	r2, r3, r1, r2
87800d18:	f100 3bff 	add.w	fp, r0, #4294967295	; 0xffffffff
87800d1c:	f2c8 0400 	movt	r4, #32768	; 0x8000
87800d20:	4630      	mov	r0, r6
87800d22:	fbab bc04 	umull	fp, ip, fp, r4
87800d26:	1ac9      	subs	r1, r1, r3
87800d28:	eb03 0351 	add.w	r3, r3, r1, lsr #1
87800d2c:	ea4f 38dc 	mov.w	r8, ip, lsr #15
87800d30:	0c9b      	lsrs	r3, r3, #18
87800d32:	f108 0801 	add.w	r8, r8, #1
87800d36:	3301      	adds	r3, #1
87800d38:	4598      	cmp	r8, r3
87800d3a:	bf38      	it	cc
87800d3c:	4698      	movcc	r8, r3
87800d3e:	4641      	mov	r1, r8
87800d40:	f001 fd16 	bl	87802770 <__udivsi3>
87800d44:	4606      	mov	r6, r0
87800d46:	4641      	mov	r1, r8
87800d48:	4628      	mov	r0, r5
87800d4a:	f001 fd11 	bl	87802770 <__udivsi3>
87800d4e:	4605      	mov	r5, r0
87800d50:	b976      	cbnz	r6, 87800d70 <uart_setbaudrate+0x1ac>
87800d52:	bb40      	cbnz	r0, 87800da6 <uart_setbaudrate+0x1e2>
87800d54:	f04f 0801 	mov.w	r8, #1
87800d58:	2305      	movs	r3, #5
87800d5a:	4601      	mov	r1, r0
87800d5c:	9001      	str	r0, [sp, #4]
87800d5e:	4646      	mov	r6, r8
87800d60:	f8cd 800c 	str.w	r8, [sp, #12]
87800d64:	4645      	mov	r5, r8
87800d66:	4648      	mov	r0, r9
87800d68:	f04f 0b10 	mov.w	fp, #16
87800d6c:	9302      	str	r3, [sp, #8]
87800d6e:	e773      	b.n	87800c58 <uart_setbaudrate+0x94>
87800d70:	1e72      	subs	r2, r6, #1
87800d72:	b158      	cbz	r0, 87800d8c <uart_setbaudrate+0x1c8>
87800d74:	fba2 2304 	umull	r2, r3, r2, r4
87800d78:	ea4f 1b06 	mov.w	fp, r6, lsl #4
87800d7c:	0bda      	lsrs	r2, r3, #15
87800d7e:	1e53      	subs	r3, r2, #1
87800d80:	3201      	adds	r2, #1
87800d82:	9203      	str	r2, [sp, #12]
87800d84:	2200      	movs	r2, #0
87800d86:	46a8      	mov	r8, r5
87800d88:	9201      	str	r2, [sp, #4]
87800d8a:	e753      	b.n	87800c34 <uart_setbaudrate+0x70>
87800d8c:	fba2 2304 	umull	r2, r3, r2, r4
87800d90:	f04f 0801 	mov.w	r8, #1
87800d94:	9001      	str	r0, [sp, #4]
87800d96:	ea4f 1b06 	mov.w	fp, r6, lsl #4
87800d9a:	4645      	mov	r5, r8
87800d9c:	0bda      	lsrs	r2, r3, #15
87800d9e:	1e53      	subs	r3, r2, #1
87800da0:	4442      	add	r2, r8
87800da2:	9203      	str	r2, [sp, #12]
87800da4:	e746      	b.n	87800c34 <uart_setbaudrate+0x70>
87800da6:	2201      	movs	r2, #1
87800da8:	f04f 0b10 	mov.w	fp, #16
87800dac:	4616      	mov	r6, r2
87800dae:	f04f 33ff 	mov.w	r3, #4294967295	; 0xffffffff
87800db2:	e7e6      	b.n	87800d82 <uart_setbaudrate+0x1be>
87800db4:	2401      	movs	r4, #1
87800db6:	e75a      	b.n	87800c6e <uart_setbaudrate+0xaa>
87800db8:	2401      	movs	r4, #1
87800dba:	e716      	b.n	87800bea <uart_setbaudrate+0x26>

87800dbc <uart_disable>:
87800dbc:	f8d0 3080 	ldr.w	r3, [r0, #128]	; 0x80
87800dc0:	f023 0301 	bic.w	r3, r3, #1
87800dc4:	f8c0 3080 	str.w	r3, [r0, #128]	; 0x80
87800dc8:	4770      	bx	lr
87800dca:	bf00      	nop

87800dcc <uart_enable>:
87800dcc:	f8d0 3080 	ldr.w	r3, [r0, #128]	; 0x80
87800dd0:	f043 0301 	orr.w	r3, r3, #1
87800dd4:	f8c0 3080 	str.w	r3, [r0, #128]	; 0x80
87800dd8:	4770      	bx	lr
87800dda:	bf00      	nop

87800ddc <uart_softreset>:
87800ddc:	f8d0 3084 	ldr.w	r3, [r0, #132]	; 0x84
87800de0:	f023 0301 	bic.w	r3, r3, #1
87800de4:	f8c0 3084 	str.w	r3, [r0, #132]	; 0x84
87800de8:	f8d0 3084 	ldr.w	r3, [r0, #132]	; 0x84
87800dec:	07db      	lsls	r3, r3, #31
87800dee:	d5fb      	bpl.n	87800de8 <uart_softreset+0xc>
87800df0:	4770      	bx	lr
87800df2:	bf00      	nop

87800df4 <putc>:
87800df4:	2100      	movs	r1, #0
87800df6:	f2c0 2102 	movt	r1, #514	; 0x202
87800dfa:	f8d1 2098 	ldr.w	r2, [r1, #152]	; 0x98
87800dfe:	2300      	movs	r3, #0
87800e00:	f2c0 2302 	movt	r3, #514	; 0x202
87800e04:	0712      	lsls	r2, r2, #28
87800e06:	d5f8      	bpl.n	87800dfa <putc+0x6>
87800e08:	6418      	str	r0, [r3, #64]	; 0x40
87800e0a:	4770      	bx	lr

87800e0c <puts>:
87800e0c:	7801      	ldrb	r1, [r0, #0]
87800e0e:	b179      	cbz	r1, 87800e30 <puts+0x24>
87800e10:	2200      	movs	r2, #0
87800e12:	b410      	push	{r4}
87800e14:	f2c0 2202 	movt	r2, #514	; 0x202
87800e18:	4614      	mov	r4, r2
87800e1a:	f8d2 3098 	ldr.w	r3, [r2, #152]	; 0x98
87800e1e:	071b      	lsls	r3, r3, #28
87800e20:	d5fb      	bpl.n	87800e1a <puts+0xe>
87800e22:	6421      	str	r1, [r4, #64]	; 0x40
87800e24:	f810 1f01 	ldrb.w	r1, [r0, #1]!
87800e28:	2900      	cmp	r1, #0
87800e2a:	d1f6      	bne.n	87800e1a <puts+0xe>
87800e2c:	f85d 4b04 	ldr.w	r4, [sp], #4
87800e30:	4770      	bx	lr
87800e32:	bf00      	nop

87800e34 <getc>:
87800e34:	2100      	movs	r1, #0
87800e36:	f2c0 2102 	movt	r1, #514	; 0x202
87800e3a:	f8d1 2098 	ldr.w	r2, [r1, #152]	; 0x98
87800e3e:	2300      	movs	r3, #0
87800e40:	f2c0 2302 	movt	r3, #514	; 0x202
87800e44:	07d2      	lsls	r2, r2, #31
87800e46:	d5f8      	bpl.n	87800e3a <getc+0x6>
87800e48:	6818      	ldr	r0, [r3, #0]
87800e4a:	b2c0      	uxtb	r0, r0
87800e4c:	4770      	bx	lr
87800e4e:	bf00      	nop

87800e50 <raise>:
87800e50:	4770      	bx	lr
87800e52:	bf00      	nop

87800e54 <__muldi3>:
87800e54:	fb02 f101 	mul.w	r1, r2, r1
87800e58:	b4f0      	push	{r4, r5, r6, r7}
87800e5a:	4604      	mov	r4, r0
87800e5c:	ea4f 4610 	mov.w	r6, r0, lsr #16
87800e60:	ea4f 4512 	mov.w	r5, r2, lsr #16
87800e64:	ea20 4706 	bic.w	r7, r0, r6, lsl #16
87800e68:	ea22 4205 	bic.w	r2, r2, r5, lsl #16
87800e6c:	fb07 f002 	mul.w	r0, r7, r2
87800e70:	fb06 f202 	mul.w	r2, r6, r2
87800e74:	fb05 f707 	mul.w	r7, r5, r7
87800e78:	fb06 f505 	mul.w	r5, r6, r5
87800e7c:	19d7      	adds	r7, r2, r7
87800e7e:	bf28      	it	cs
87800e80:	f505 3580 	addcs.w	r5, r5, #65536	; 0x10000
87800e84:	eb10 4007 	adds.w	r0, r0, r7, lsl #16
87800e88:	eb45 4517 	adc.w	r5, r5, r7, lsr #16
87800e8c:	fb03 1104 	mla	r1, r3, r4, r1
87800e90:	4429      	add	r1, r5
87800e92:	bcf0      	pop	{r4, r5, r6, r7}
87800e94:	4770      	bx	lr
87800e96:	bf00      	nop

87800e98 <printf>:
87800e98:	b40f      	push	{r0, r1, r2, r3}
87800e9a:	f243 2070 	movw	r0, #12912	; 0x3270
87800e9e:	b570      	push	{r4, r5, r6, lr}
87800ea0:	f2c8 7080 	movt	r0, #34688	; 0x8780
87800ea4:	aa05      	add	r2, sp, #20
87800ea6:	2400      	movs	r4, #0
87800ea8:	9904      	ldr	r1, [sp, #16]
87800eaa:	f001 f975 	bl	87802198 <vsprintf>
87800eae:	4d0b      	ldr	r5, [pc, #44]	; (87800edc <printf+0x44>)
87800eb0:	4606      	mov	r6, r0
87800eb2:	e003      	b.n	87800ebc <printf+0x24>
87800eb4:	f815 0f01 	ldrb.w	r0, [r5, #1]!
87800eb8:	f7ff ff9c 	bl	87800df4 <putc>
87800ebc:	f243 2070 	movw	r0, #12912	; 0x3270
87800ec0:	f2c8 7080 	movt	r0, #34688	; 0x8780
87800ec4:	f000 f95a 	bl	8780117c <strlen>
87800ec8:	4284      	cmp	r4, r0
87800eca:	f104 0401 	add.w	r4, r4, #1
87800ece:	d3f1      	bcc.n	87800eb4 <printf+0x1c>
87800ed0:	4630      	mov	r0, r6
87800ed2:	e8bd 4070 	ldmia.w	sp!, {r4, r5, r6, lr}
87800ed6:	b004      	add	sp, #16
87800ed8:	4770      	bx	lr
87800eda:	bf00      	nop
87800edc:	8780326f 	strhi	r3, [r0, pc, ror #4]

87800ee0 <scanf>:
87800ee0:	b40f      	push	{r0, r1, r2, r3}
87800ee2:	b570      	push	{r4, r5, r6, lr}
87800ee4:	2500      	movs	r5, #0
87800ee6:	4e10      	ldr	r6, [pc, #64]	; (87800f28 <scanf+0x48>)
87800ee8:	e002      	b.n	87800ef0 <scanf+0x10>
87800eea:	3501      	adds	r5, #1
87800eec:	f806 4f01 	strb.w	r4, [r6, #1]!
87800ef0:	f7ff ffa0 	bl	87800e34 <getc>
87800ef4:	4604      	mov	r4, r0
87800ef6:	f7ff ff7d 	bl	87800df4 <putc>
87800efa:	2c0d      	cmp	r4, #13
87800efc:	bf18      	it	ne
87800efe:	2c0a      	cmpne	r4, #10
87800f00:	d1f3      	bne.n	87800eea <scanf+0xa>
87800f02:	f243 2070 	movw	r0, #12912	; 0x3270
87800f06:	2300      	movs	r3, #0
87800f08:	f2c8 7080 	movt	r0, #34688	; 0x8780
87800f0c:	aa05      	add	r2, sp, #20
87800f0e:	4405      	add	r5, r0
87800f10:	9904      	ldr	r1, [sp, #16]
87800f12:	f500 6080 	add.w	r0, r0, #1024	; 0x400
87800f16:	f885 3400 	strb.w	r3, [r5, #1024]	; 0x400
87800f1a:	f001 f94f 	bl	878021bc <vsscanf>
87800f1e:	e8bd 4070 	ldmia.w	sp!, {r4, r5, r6, lr}
87800f22:	b004      	add	sp, #16
87800f24:	4770      	bx	lr
87800f26:	bf00      	nop
87800f28:	8780366f 	strhi	r3, [r0, pc, ror #12]

87800f2c <__div64_32>:
87800f2c:	e92d 4ff8 	stmdb	sp!, {r3, r4, r5, r6, r7, r8, r9, sl, fp, lr}
87800f30:	4688      	mov	r8, r1
87800f32:	e9d0 6700 	ldrd	r6, r7, [r0]
87800f36:	f04f 0b00 	mov.w	fp, #0
87800f3a:	4681      	mov	r9, r0
87800f3c:	468a      	mov	sl, r1
87800f3e:	4644      	mov	r4, r8
87800f40:	465d      	mov	r5, fp
87800f42:	42b9      	cmp	r1, r7
87800f44:	bf84      	itt	hi
87800f46:	2200      	movhi	r2, #0
87800f48:	2300      	movhi	r3, #0
87800f4a:	d80b      	bhi.n	87800f64 <__div64_32+0x38>
87800f4c:	4638      	mov	r0, r7
87800f4e:	f001 fc0f 	bl	87802770 <__udivsi3>
87800f52:	4686      	mov	lr, r0
87800f54:	2000      	movs	r0, #0
87800f56:	fb08 f10e 	mul.w	r1, r8, lr
87800f5a:	1a36      	subs	r6, r6, r0
87800f5c:	4602      	mov	r2, r0
87800f5e:	4673      	mov	r3, lr
87800f60:	eb67 0701 	sbc.w	r7, r7, r1
87800f64:	45bb      	cmp	fp, r7
87800f66:	bf08      	it	eq
87800f68:	45b2      	cmpeq	sl, r6
87800f6a:	bf34      	ite	cc
87800f6c:	2101      	movcc	r1, #1
87800f6e:	2100      	movcs	r1, #0
87800f70:	f1ba 0f01 	cmp.w	sl, #1
87800f74:	f001 0101 	and.w	r1, r1, #1
87800f78:	f17b 0000 	sbcs.w	r0, fp, #0
87800f7c:	f04f 0001 	mov.w	r0, #1
87800f80:	bfb8      	it	lt
87800f82:	2100      	movlt	r1, #0
87800f84:	b371      	cbz	r1, 87800fe4 <__div64_32+0xb8>
87800f86:	2100      	movs	r1, #0
87800f88:	1924      	adds	r4, r4, r4
87800f8a:	416d      	adcs	r5, r5
87800f8c:	1800      	adds	r0, r0, r0
87800f8e:	4149      	adcs	r1, r1
87800f90:	2c01      	cmp	r4, #1
87800f92:	f175 0e00 	sbcs.w	lr, r5, #0
87800f96:	bfac      	ite	ge
87800f98:	f04f 0e01 	movge.w	lr, #1
87800f9c:	f04f 0e00 	movlt.w	lr, #0
87800fa0:	42bd      	cmp	r5, r7
87800fa2:	f00e 0e01 	and.w	lr, lr, #1
87800fa6:	bf08      	it	eq
87800fa8:	42b4      	cmpeq	r4, r6
87800faa:	bf28      	it	cs
87800fac:	f04f 0e00 	movcs.w	lr, #0
87800fb0:	f1be 0f00 	cmp.w	lr, #0
87800fb4:	d1e8      	bne.n	87800f88 <__div64_32+0x5c>
87800fb6:	42af      	cmp	r7, r5
87800fb8:	bf08      	it	eq
87800fba:	42a6      	cmpeq	r6, r4
87800fbc:	d304      	bcc.n	87800fc8 <__div64_32+0x9c>
87800fbe:	1b36      	subs	r6, r6, r4
87800fc0:	eb67 0705 	sbc.w	r7, r7, r5
87800fc4:	1812      	adds	r2, r2, r0
87800fc6:	414b      	adcs	r3, r1
87800fc8:	0849      	lsrs	r1, r1, #1
87800fca:	ea4f 0030 	mov.w	r0, r0, rrx
87800fce:	086d      	lsrs	r5, r5, #1
87800fd0:	ea4f 0434 	mov.w	r4, r4, rrx
87800fd4:	ea50 0e01 	orrs.w	lr, r0, r1
87800fd8:	d1ed      	bne.n	87800fb6 <__div64_32+0x8a>
87800fda:	e9c9 2300 	strd	r2, r3, [r9]
87800fde:	4630      	mov	r0, r6
87800fe0:	e8bd 8ff8 	ldmia.w	sp!, {r3, r4, r5, r6, r7, r8, r9, sl, fp, pc}
87800fe4:	2100      	movs	r1, #0
87800fe6:	e7e6      	b.n	87800fb6 <__div64_32+0x8a>

87800fe8 <strnicmp>:
87800fe8:	b322      	cbz	r2, 87801034 <strnicmp+0x4c>
87800fea:	b5f0      	push	{r4, r5, r6, r7, lr}
87800fec:	f642 4564 	movw	r5, #11364	; 0x2c64
87800ff0:	3801      	subs	r0, #1
87800ff2:	f2c8 7580 	movt	r5, #34688	; 0x8780
87800ff6:	e008      	b.n	8780100a <strnicmp+0x22>
87800ff8:	07f6      	lsls	r6, r6, #31
87800ffa:	fa5f f38e 	uxtb.w	r3, lr
87800ffe:	d500      	bpl.n	87801002 <strnicmp+0x1a>
87801000:	b2fc      	uxtb	r4, r7
87801002:	42a3      	cmp	r3, r4
87801004:	d114      	bne.n	87801030 <strnicmp+0x48>
87801006:	3a01      	subs	r2, #1
87801008:	d01a      	beq.n	87801040 <strnicmp+0x58>
8780100a:	f810 3f01 	ldrb.w	r3, [r0, #1]!
8780100e:	f811 4b01 	ldrb.w	r4, [r1], #1
87801012:	b18b      	cbz	r3, 87801038 <strnicmp+0x50>
87801014:	b194      	cbz	r4, 8780103c <strnicmp+0x54>
87801016:	42a3      	cmp	r3, r4
87801018:	d0f5      	beq.n	87801006 <strnicmp+0x1e>
8780101a:	5cee      	ldrb	r6, [r5, r3]
8780101c:	f104 0720 	add.w	r7, r4, #32
87801020:	f103 0e20 	add.w	lr, r3, #32
87801024:	f016 0f01 	tst.w	r6, #1
87801028:	5d2e      	ldrb	r6, [r5, r4]
8780102a:	d1e5      	bne.n	87800ff8 <strnicmp+0x10>
8780102c:	07f6      	lsls	r6, r6, #31
8780102e:	d4e7      	bmi.n	87801000 <strnicmp+0x18>
87801030:	1b18      	subs	r0, r3, r4
87801032:	bdf0      	pop	{r4, r5, r6, r7, pc}
87801034:	4610      	mov	r0, r2
87801036:	4770      	bx	lr
87801038:	4260      	negs	r0, r4
8780103a:	bdf0      	pop	{r4, r5, r6, r7, pc}
8780103c:	4618      	mov	r0, r3
8780103e:	bdf0      	pop	{r4, r5, r6, r7, pc}
87801040:	4610      	mov	r0, r2
87801042:	bdf0      	pop	{r4, r5, r6, r7, pc}

87801044 <strcpy>:
87801044:	1e42      	subs	r2, r0, #1
87801046:	f811 3b01 	ldrb.w	r3, [r1], #1
8780104a:	f802 3f01 	strb.w	r3, [r2, #1]!
8780104e:	2b00      	cmp	r3, #0
87801050:	d1f9      	bne.n	87801046 <strcpy+0x2>
87801052:	4770      	bx	lr

87801054 <strncpy>:
87801054:	b410      	push	{r4}
87801056:	440a      	add	r2, r1
87801058:	1e44      	subs	r4, r0, #1
8780105a:	e004      	b.n	87801066 <strncpy+0x12>
8780105c:	f811 3b01 	ldrb.w	r3, [r1], #1
87801060:	f804 3f01 	strb.w	r3, [r4, #1]!
87801064:	b10b      	cbz	r3, 8780106a <strncpy+0x16>
87801066:	4291      	cmp	r1, r2
87801068:	d1f8      	bne.n	8780105c <strncpy+0x8>
8780106a:	f85d 4b04 	ldr.w	r4, [sp], #4
8780106e:	4770      	bx	lr

87801070 <strcat>:
87801070:	7803      	ldrb	r3, [r0, #0]
87801072:	b163      	cbz	r3, 8780108e <strcat+0x1e>
87801074:	4603      	mov	r3, r0
87801076:	f813 2f01 	ldrb.w	r2, [r3, #1]!
8780107a:	2a00      	cmp	r2, #0
8780107c:	d1fb      	bne.n	87801076 <strcat+0x6>
8780107e:	3b01      	subs	r3, #1
87801080:	f811 2b01 	ldrb.w	r2, [r1], #1
87801084:	f803 2f01 	strb.w	r2, [r3, #1]!
87801088:	2a00      	cmp	r2, #0
8780108a:	d1f9      	bne.n	87801080 <strcat+0x10>
8780108c:	4770      	bx	lr
8780108e:	4603      	mov	r3, r0
87801090:	e7f5      	b.n	8780107e <strcat+0xe>
87801092:	bf00      	nop

87801094 <strncat>:
87801094:	b1ba      	cbz	r2, 878010c6 <strncat+0x32>
87801096:	7803      	ldrb	r3, [r0, #0]
87801098:	b430      	push	{r4, r5}
8780109a:	b1bb      	cbz	r3, 878010cc <strncat+0x38>
8780109c:	4603      	mov	r3, r0
8780109e:	f813 4f01 	ldrb.w	r4, [r3, #1]!
878010a2:	2c00      	cmp	r4, #0
878010a4:	d1fb      	bne.n	8780109e <strncat+0xa>
878010a6:	f811 4b01 	ldrb.w	r4, [r1], #1
878010aa:	461d      	mov	r5, r3
878010ac:	f803 4b01 	strb.w	r4, [r3], #1
878010b0:	b144      	cbz	r4, 878010c4 <strncat+0x30>
878010b2:	3a01      	subs	r2, #1
878010b4:	d008      	beq.n	878010c8 <strncat+0x34>
878010b6:	f811 4b01 	ldrb.w	r4, [r1], #1
878010ba:	461d      	mov	r5, r3
878010bc:	f803 4b01 	strb.w	r4, [r3], #1
878010c0:	2c00      	cmp	r4, #0
878010c2:	d1f6      	bne.n	878010b2 <strncat+0x1e>
878010c4:	bc30      	pop	{r4, r5}
878010c6:	4770      	bx	lr
878010c8:	706a      	strb	r2, [r5, #1]
878010ca:	e7fb      	b.n	878010c4 <strncat+0x30>
878010cc:	4603      	mov	r3, r0
878010ce:	e7f2      	b.n	878010b6 <strncat+0x22>

878010d0 <strcmp>:
878010d0:	1e42      	subs	r2, r0, #1
878010d2:	e000      	b.n	878010d6 <strcmp+0x6>
878010d4:	b148      	cbz	r0, 878010ea <strcmp+0x1a>
878010d6:	f812 0f01 	ldrb.w	r0, [r2, #1]!
878010da:	f811 3b01 	ldrb.w	r3, [r1], #1
878010de:	1ac3      	subs	r3, r0, r3
878010e0:	f013 03ff 	ands.w	r3, r3, #255	; 0xff
878010e4:	d0f6      	beq.n	878010d4 <strcmp+0x4>
878010e6:	b258      	sxtb	r0, r3
878010e8:	4770      	bx	lr
878010ea:	4770      	bx	lr

878010ec <strncmp>:
878010ec:	b302      	cbz	r2, 87801130 <strncmp+0x44>
878010ee:	b470      	push	{r4, r5, r6}
878010f0:	1c4d      	adds	r5, r1, #1
878010f2:	7803      	ldrb	r3, [r0, #0]
878010f4:	780e      	ldrb	r6, [r1, #0]
878010f6:	1b9e      	subs	r6, r3, r6
878010f8:	f016 06ff 	ands.w	r6, r6, #255	; 0xff
878010fc:	bf18      	it	ne
878010fe:	b270      	sxtbne	r0, r6
87801100:	d10e      	bne.n	87801120 <strncmp+0x34>
87801102:	b1bb      	cbz	r3, 87801134 <strncmp+0x48>
87801104:	440a      	add	r2, r1
87801106:	e008      	b.n	8780111a <strncmp+0x2e>
87801108:	f810 4f01 	ldrb.w	r4, [r0, #1]!
8780110c:	f815 3b01 	ldrb.w	r3, [r5], #1
87801110:	1ae3      	subs	r3, r4, r3
87801112:	f013 03ff 	ands.w	r3, r3, #255	; 0xff
87801116:	d105      	bne.n	87801124 <strncmp+0x38>
87801118:	b13c      	cbz	r4, 8780112a <strncmp+0x3e>
8780111a:	4295      	cmp	r5, r2
8780111c:	d1f4      	bne.n	87801108 <strncmp+0x1c>
8780111e:	2000      	movs	r0, #0
87801120:	bc70      	pop	{r4, r5, r6}
87801122:	4770      	bx	lr
87801124:	b258      	sxtb	r0, r3
87801126:	bc70      	pop	{r4, r5, r6}
87801128:	4770      	bx	lr
8780112a:	4620      	mov	r0, r4
8780112c:	bc70      	pop	{r4, r5, r6}
8780112e:	4770      	bx	lr
87801130:	4610      	mov	r0, r2
87801132:	4770      	bx	lr
87801134:	4618      	mov	r0, r3
87801136:	e7f3      	b.n	87801120 <strncmp+0x34>

87801138 <strchr>:
87801138:	7803      	ldrb	r3, [r0, #0]
8780113a:	b2c9      	uxtb	r1, r1
8780113c:	428b      	cmp	r3, r1
8780113e:	d006      	beq.n	8780114e <strchr+0x16>
87801140:	b123      	cbz	r3, 8780114c <strchr+0x14>
87801142:	f810 3f01 	ldrb.w	r3, [r0, #1]!
87801146:	428b      	cmp	r3, r1
87801148:	d1fa      	bne.n	87801140 <strchr+0x8>
8780114a:	4770      	bx	lr
8780114c:	4618      	mov	r0, r3
8780114e:	4770      	bx	lr

87801150 <strrchr>:
87801150:	7803      	ldrb	r3, [r0, #0]
87801152:	b18b      	cbz	r3, 87801178 <strrchr+0x28>
87801154:	4603      	mov	r3, r0
87801156:	f813 2f01 	ldrb.w	r2, [r3, #1]!
8780115a:	2a00      	cmp	r2, #0
8780115c:	d1fb      	bne.n	87801156 <strrchr+0x6>
8780115e:	b2c9      	uxtb	r1, r1
87801160:	2200      	movs	r2, #0
87801162:	e003      	b.n	8780116c <strrchr+0x1c>
87801164:	3b01      	subs	r3, #1
87801166:	4298      	cmp	r0, r3
87801168:	d804      	bhi.n	87801174 <strrchr+0x24>
8780116a:	781a      	ldrb	r2, [r3, #0]
8780116c:	428a      	cmp	r2, r1
8780116e:	d1f9      	bne.n	87801164 <strrchr+0x14>
87801170:	4618      	mov	r0, r3
87801172:	4770      	bx	lr
87801174:	2000      	movs	r0, #0
87801176:	4770      	bx	lr
87801178:	4603      	mov	r3, r0
8780117a:	e7f0      	b.n	8780115e <strrchr+0xe>

8780117c <strlen>:
8780117c:	7802      	ldrb	r2, [r0, #0]
8780117e:	b132      	cbz	r2, 8780118e <strlen+0x12>
87801180:	4603      	mov	r3, r0
87801182:	f813 1f01 	ldrb.w	r1, [r3, #1]!
87801186:	2900      	cmp	r1, #0
87801188:	d1fb      	bne.n	87801182 <strlen+0x6>
8780118a:	1a18      	subs	r0, r3, r0
8780118c:	4770      	bx	lr
8780118e:	4610      	mov	r0, r2
87801190:	4770      	bx	lr
87801192:	bf00      	nop

87801194 <strnlen>:
87801194:	b199      	cbz	r1, 878011be <strnlen+0x2a>
87801196:	7803      	ldrb	r3, [r0, #0]
87801198:	b19b      	cbz	r3, 878011c2 <strnlen+0x2e>
8780119a:	b410      	push	{r4}
8780119c:	4401      	add	r1, r0
8780119e:	1c43      	adds	r3, r0, #1
878011a0:	e002      	b.n	878011a8 <strnlen+0x14>
878011a2:	781c      	ldrb	r4, [r3, #0]
878011a4:	3301      	adds	r3, #1
878011a6:	b134      	cbz	r4, 878011b6 <strnlen+0x22>
878011a8:	428b      	cmp	r3, r1
878011aa:	461a      	mov	r2, r3
878011ac:	d1f9      	bne.n	878011a2 <strnlen+0xe>
878011ae:	1a18      	subs	r0, r3, r0
878011b0:	f85d 4b04 	ldr.w	r4, [sp], #4
878011b4:	4770      	bx	lr
878011b6:	1a10      	subs	r0, r2, r0
878011b8:	f85d 4b04 	ldr.w	r4, [sp], #4
878011bc:	4770      	bx	lr
878011be:	4608      	mov	r0, r1
878011c0:	4770      	bx	lr
878011c2:	4618      	mov	r0, r3
878011c4:	4770      	bx	lr
878011c6:	bf00      	nop

878011c8 <strspn>:
878011c8:	b470      	push	{r4, r5, r6}
878011ca:	4605      	mov	r5, r0
878011cc:	7804      	ldrb	r4, [r0, #0]
878011ce:	b1ac      	cbz	r4, 878011fc <strspn+0x34>
878011d0:	780e      	ldrb	r6, [r1, #0]
878011d2:	2000      	movs	r0, #0
878011d4:	b14e      	cbz	r6, 878011ea <strspn+0x22>
878011d6:	42a6      	cmp	r6, r4
878011d8:	d009      	beq.n	878011ee <strspn+0x26>
878011da:	460a      	mov	r2, r1
878011dc:	e001      	b.n	878011e2 <strspn+0x1a>
878011de:	429c      	cmp	r4, r3
878011e0:	d005      	beq.n	878011ee <strspn+0x26>
878011e2:	f812 3f01 	ldrb.w	r3, [r2, #1]!
878011e6:	2b00      	cmp	r3, #0
878011e8:	d1f9      	bne.n	878011de <strspn+0x16>
878011ea:	bc70      	pop	{r4, r5, r6}
878011ec:	4770      	bx	lr
878011ee:	f815 4f01 	ldrb.w	r4, [r5, #1]!
878011f2:	3001      	adds	r0, #1
878011f4:	2c00      	cmp	r4, #0
878011f6:	d1ed      	bne.n	878011d4 <strspn+0xc>
878011f8:	bc70      	pop	{r4, r5, r6}
878011fa:	4770      	bx	lr
878011fc:	4620      	mov	r0, r4
878011fe:	e7f4      	b.n	878011ea <strspn+0x22>

87801200 <strpbrk>:
87801200:	b430      	push	{r4, r5}
87801202:	7804      	ldrb	r4, [r0, #0]
87801204:	b17c      	cbz	r4, 87801226 <strpbrk+0x26>
87801206:	780d      	ldrb	r5, [r1, #0]
87801208:	b14d      	cbz	r5, 8780121e <strpbrk+0x1e>
8780120a:	42a5      	cmp	r5, r4
8780120c:	d00c      	beq.n	87801228 <strpbrk+0x28>
8780120e:	460a      	mov	r2, r1
87801210:	e001      	b.n	87801216 <strpbrk+0x16>
87801212:	429c      	cmp	r4, r3
87801214:	d008      	beq.n	87801228 <strpbrk+0x28>
87801216:	f812 3f01 	ldrb.w	r3, [r2, #1]!
8780121a:	2b00      	cmp	r3, #0
8780121c:	d1f9      	bne.n	87801212 <strpbrk+0x12>
8780121e:	f810 4f01 	ldrb.w	r4, [r0, #1]!
87801222:	2c00      	cmp	r4, #0
87801224:	d1f0      	bne.n	87801208 <strpbrk+0x8>
87801226:	4620      	mov	r0, r4
87801228:	bc30      	pop	{r4, r5}
8780122a:	4770      	bx	lr

8780122c <strtok>:
8780122c:	b5f0      	push	{r4, r5, r6, r7, lr}
8780122e:	f643 2e70 	movw	lr, #14960	; 0x3a70
87801232:	f2c8 7e80 	movt	lr, #34688	; 0x8780
87801236:	2800      	cmp	r0, #0
87801238:	d03e      	beq.n	878012b8 <strtok+0x8c>
8780123a:	7804      	ldrb	r4, [r0, #0]
8780123c:	2c00      	cmp	r4, #0
8780123e:	d037      	beq.n	878012b0 <strtok+0x84>
87801240:	780d      	ldrb	r5, [r1, #0]
87801242:	4607      	mov	r7, r0
87801244:	2600      	movs	r6, #0
87801246:	b14d      	cbz	r5, 8780125c <strtok+0x30>
87801248:	42a5      	cmp	r5, r4
8780124a:	d01e      	beq.n	8780128a <strtok+0x5e>
8780124c:	460a      	mov	r2, r1
8780124e:	e001      	b.n	87801254 <strtok+0x28>
87801250:	429c      	cmp	r4, r3
87801252:	d01a      	beq.n	8780128a <strtok+0x5e>
87801254:	f812 3f01 	ldrb.w	r3, [r2, #1]!
87801258:	2b00      	cmp	r3, #0
8780125a:	d1f9      	bne.n	87801250 <strtok+0x24>
8780125c:	5d84      	ldrb	r4, [r0, r6]
8780125e:	4430      	add	r0, r6
87801260:	4606      	mov	r6, r0
87801262:	b32c      	cbz	r4, 878012b0 <strtok+0x84>
87801264:	b14d      	cbz	r5, 8780127a <strtok+0x4e>
87801266:	42a5      	cmp	r5, r4
87801268:	d01a      	beq.n	878012a0 <strtok+0x74>
8780126a:	460a      	mov	r2, r1
8780126c:	e001      	b.n	87801272 <strtok+0x46>
8780126e:	429c      	cmp	r4, r3
87801270:	d016      	beq.n	878012a0 <strtok+0x74>
87801272:	f812 3f01 	ldrb.w	r3, [r2, #1]!
87801276:	2b00      	cmp	r3, #0
87801278:	d1f9      	bne.n	8780126e <strtok+0x42>
8780127a:	f816 4f01 	ldrb.w	r4, [r6, #1]!
8780127e:	2c00      	cmp	r4, #0
87801280:	d1f0      	bne.n	87801264 <strtok+0x38>
87801282:	4626      	mov	r6, r4
87801284:	f8ce 6000 	str.w	r6, [lr]
87801288:	bdf0      	pop	{r4, r5, r6, r7, pc}
8780128a:	f817 4f01 	ldrb.w	r4, [r7, #1]!
8780128e:	3601      	adds	r6, #1
87801290:	2c00      	cmp	r4, #0
87801292:	d1d8      	bne.n	87801246 <strtok+0x1a>
87801294:	5d84      	ldrb	r4, [r0, r6]
87801296:	4430      	add	r0, r6
87801298:	4606      	mov	r6, r0
8780129a:	2c00      	cmp	r4, #0
8780129c:	d1e2      	bne.n	87801264 <strtok+0x38>
8780129e:	e007      	b.n	878012b0 <strtok+0x84>
878012a0:	7833      	ldrb	r3, [r6, #0]
878012a2:	4632      	mov	r2, r6
878012a4:	2b00      	cmp	r3, #0
878012a6:	d0ed      	beq.n	87801284 <strtok+0x58>
878012a8:	2300      	movs	r3, #0
878012aa:	3601      	adds	r6, #1
878012ac:	7013      	strb	r3, [r2, #0]
878012ae:	e7e9      	b.n	87801284 <strtok+0x58>
878012b0:	2000      	movs	r0, #0
878012b2:	f8ce 0000 	str.w	r0, [lr]
878012b6:	bdf0      	pop	{r4, r5, r6, r7, pc}
878012b8:	f8de 0000 	ldr.w	r0, [lr]
878012bc:	2800      	cmp	r0, #0
878012be:	d1bc      	bne.n	8780123a <strtok+0xe>
878012c0:	e7e2      	b.n	87801288 <strtok+0x5c>
878012c2:	bf00      	nop

878012c4 <strsep>:
878012c4:	b4f0      	push	{r4, r5, r6, r7}
878012c6:	4607      	mov	r7, r0
878012c8:	6800      	ldr	r0, [r0, #0]
878012ca:	b198      	cbz	r0, 878012f4 <strsep+0x30>
878012cc:	7804      	ldrb	r4, [r0, #0]
878012ce:	b184      	cbz	r4, 878012f2 <strsep+0x2e>
878012d0:	780e      	ldrb	r6, [r1, #0]
878012d2:	4605      	mov	r5, r0
878012d4:	b14e      	cbz	r6, 878012ea <strsep+0x26>
878012d6:	42a6      	cmp	r6, r4
878012d8:	d00e      	beq.n	878012f8 <strsep+0x34>
878012da:	460a      	mov	r2, r1
878012dc:	e001      	b.n	878012e2 <strsep+0x1e>
878012de:	429c      	cmp	r4, r3
878012e0:	d00a      	beq.n	878012f8 <strsep+0x34>
878012e2:	f812 3f01 	ldrb.w	r3, [r2, #1]!
878012e6:	2b00      	cmp	r3, #0
878012e8:	d1f9      	bne.n	878012de <strsep+0x1a>
878012ea:	f815 4f01 	ldrb.w	r4, [r5, #1]!
878012ee:	2c00      	cmp	r4, #0
878012f0:	d1f0      	bne.n	878012d4 <strsep+0x10>
878012f2:	603c      	str	r4, [r7, #0]
878012f4:	bcf0      	pop	{r4, r5, r6, r7}
878012f6:	4770      	bx	lr
878012f8:	2300      	movs	r3, #0
878012fa:	1c6c      	adds	r4, r5, #1
878012fc:	702b      	strb	r3, [r5, #0]
878012fe:	e7f8      	b.n	878012f2 <strsep+0x2e>

87801300 <memset>:
87801300:	b132      	cbz	r2, 87801310 <memset+0x10>
87801302:	b2c9      	uxtb	r1, r1
87801304:	4402      	add	r2, r0
87801306:	4603      	mov	r3, r0
87801308:	f803 1b01 	strb.w	r1, [r3], #1
8780130c:	4293      	cmp	r3, r2
8780130e:	d1fb      	bne.n	87801308 <memset+0x8>
87801310:	4770      	bx	lr
87801312:	bf00      	nop

87801314 <bcopy>:
87801314:	b13a      	cbz	r2, 87801326 <bcopy+0x12>
87801316:	3901      	subs	r1, #1
87801318:	4402      	add	r2, r0
8780131a:	f810 3b01 	ldrb.w	r3, [r0], #1
8780131e:	4290      	cmp	r0, r2
87801320:	f801 3f01 	strb.w	r3, [r1, #1]!
87801324:	d1f9      	bne.n	8780131a <bcopy+0x6>
87801326:	4770      	bx	lr

87801328 <memcpy>:
87801328:	b152      	cbz	r2, 87801340 <memcpy+0x18>
8780132a:	440a      	add	r2, r1
8780132c:	1e43      	subs	r3, r0, #1
8780132e:	b410      	push	{r4}
87801330:	f811 4b01 	ldrb.w	r4, [r1], #1
87801334:	4291      	cmp	r1, r2
87801336:	f803 4f01 	strb.w	r4, [r3, #1]!
8780133a:	d1f9      	bne.n	87801330 <memcpy+0x8>
8780133c:	f85d 4b04 	ldr.w	r4, [sp], #4
87801340:	4770      	bx	lr
87801342:	bf00      	nop

87801344 <memmove>:
87801344:	4288      	cmp	r0, r1
87801346:	b410      	push	{r4}
87801348:	d80b      	bhi.n	87801362 <memmove+0x1e>
8780134a:	b13a      	cbz	r2, 8780135c <memmove+0x18>
8780134c:	440a      	add	r2, r1
8780134e:	1e43      	subs	r3, r0, #1
87801350:	f811 4b01 	ldrb.w	r4, [r1], #1
87801354:	4291      	cmp	r1, r2
87801356:	f803 4f01 	strb.w	r4, [r3, #1]!
8780135a:	d1f9      	bne.n	87801350 <memmove+0xc>
8780135c:	f85d 4b04 	ldr.w	r4, [sp], #4
87801360:	4770      	bx	lr
87801362:	4411      	add	r1, r2
87801364:	1883      	adds	r3, r0, r2
87801366:	2a00      	cmp	r2, #0
87801368:	d0f8      	beq.n	8780135c <memmove+0x18>
8780136a:	1a8a      	subs	r2, r1, r2
8780136c:	f811 4d01 	ldrb.w	r4, [r1, #-1]!
87801370:	4291      	cmp	r1, r2
87801372:	f803 4d01 	strb.w	r4, [r3, #-1]!
87801376:	d1f9      	bne.n	8780136c <memmove+0x28>
87801378:	f85d 4b04 	ldr.w	r4, [sp], #4
8780137c:	4770      	bx	lr
8780137e:	bf00      	nop

87801380 <memcmp>:
87801380:	b1aa      	cbz	r2, 878013ae <memcmp+0x2e>
87801382:	b430      	push	{r4, r5}
87801384:	4604      	mov	r4, r0
87801386:	7803      	ldrb	r3, [r0, #0]
87801388:	7808      	ldrb	r0, [r1, #0]
8780138a:	1a18      	subs	r0, r3, r0
8780138c:	d10a      	bne.n	878013a4 <memcmp+0x24>
8780138e:	4422      	add	r2, r4
87801390:	3401      	adds	r4, #1
87801392:	e005      	b.n	878013a0 <memcmp+0x20>
87801394:	f814 3b01 	ldrb.w	r3, [r4], #1
87801398:	f811 5f01 	ldrb.w	r5, [r1, #1]!
8780139c:	1b5b      	subs	r3, r3, r5
8780139e:	d103      	bne.n	878013a8 <memcmp+0x28>
878013a0:	4294      	cmp	r4, r2
878013a2:	d1f7      	bne.n	87801394 <memcmp+0x14>
878013a4:	bc30      	pop	{r4, r5}
878013a6:	4770      	bx	lr
878013a8:	4618      	mov	r0, r3
878013aa:	bc30      	pop	{r4, r5}
878013ac:	4770      	bx	lr
878013ae:	4610      	mov	r0, r2
878013b0:	4770      	bx	lr
878013b2:	bf00      	nop

878013b4 <memscan>:
878013b4:	b182      	cbz	r2, 878013d8 <memscan+0x24>
878013b6:	7803      	ldrb	r3, [r0, #0]
878013b8:	428b      	cmp	r3, r1
878013ba:	d00d      	beq.n	878013d8 <memscan+0x24>
878013bc:	b410      	push	{r4}
878013be:	4402      	add	r2, r0
878013c0:	1c43      	adds	r3, r0, #1
878013c2:	e002      	b.n	878013ca <memscan+0x16>
878013c4:	7804      	ldrb	r4, [r0, #0]
878013c6:	428c      	cmp	r4, r1
878013c8:	d004      	beq.n	878013d4 <memscan+0x20>
878013ca:	4293      	cmp	r3, r2
878013cc:	4618      	mov	r0, r3
878013ce:	f103 0301 	add.w	r3, r3, #1
878013d2:	d1f7      	bne.n	878013c4 <memscan+0x10>
878013d4:	f85d 4b04 	ldr.w	r4, [sp], #4
878013d8:	4770      	bx	lr
878013da:	bf00      	nop

878013dc <strstr>:
878013dc:	b5f0      	push	{r4, r5, r6, r7, lr}
878013de:	468e      	mov	lr, r1
878013e0:	f891 c000 	ldrb.w	ip, [r1]
878013e4:	f1bc 0f00 	cmp.w	ip, #0
878013e8:	d028      	beq.n	8780143c <strstr+0x60>
878013ea:	460e      	mov	r6, r1
878013ec:	f816 3f01 	ldrb.w	r3, [r6, #1]!
878013f0:	2b00      	cmp	r3, #0
878013f2:	d1fb      	bne.n	878013ec <strstr+0x10>
878013f4:	ebb6 010e 	subs.w	r1, r6, lr
878013f8:	d020      	beq.n	8780143c <strstr+0x60>
878013fa:	7807      	ldrb	r7, [r0, #0]
878013fc:	b12f      	cbz	r7, 8780140a <strstr+0x2e>
878013fe:	4607      	mov	r7, r0
87801400:	f817 3f01 	ldrb.w	r3, [r7, #1]!
87801404:	2b00      	cmp	r3, #0
87801406:	d1fb      	bne.n	87801400 <strstr+0x24>
87801408:	1a3f      	subs	r7, r7, r0
8780140a:	42b9      	cmp	r1, r7
8780140c:	dc15      	bgt.n	8780143a <strstr+0x5e>
8780140e:	3f01      	subs	r7, #1
87801410:	b1a1      	cbz	r1, 8780143c <strstr+0x60>
87801412:	7803      	ldrb	r3, [r0, #0]
87801414:	4563      	cmp	r3, ip
87801416:	d10c      	bne.n	87801432 <strstr+0x56>
87801418:	4602      	mov	r2, r0
8780141a:	f10e 0301 	add.w	r3, lr, #1
8780141e:	e005      	b.n	8780142c <strstr+0x50>
87801420:	f813 4b01 	ldrb.w	r4, [r3], #1
87801424:	f812 5f01 	ldrb.w	r5, [r2, #1]!
87801428:	42a5      	cmp	r5, r4
8780142a:	d102      	bne.n	87801432 <strstr+0x56>
8780142c:	42b3      	cmp	r3, r6
8780142e:	d1f7      	bne.n	87801420 <strstr+0x44>
87801430:	bdf0      	pop	{r4, r5, r6, r7, pc}
87801432:	428f      	cmp	r7, r1
87801434:	f100 0001 	add.w	r0, r0, #1
87801438:	dae9      	bge.n	8780140e <strstr+0x32>
8780143a:	2000      	movs	r0, #0
8780143c:	bdf0      	pop	{r4, r5, r6, r7, pc}
8780143e:	bf00      	nop

87801440 <memchr>:
87801440:	b410      	push	{r4}
87801442:	b2c9      	uxtb	r1, r1
87801444:	4402      	add	r2, r0
87801446:	e004      	b.n	87801452 <memchr+0x12>
87801448:	f813 4b01 	ldrb.w	r4, [r3], #1
8780144c:	428c      	cmp	r4, r1
8780144e:	d004      	beq.n	8780145a <memchr+0x1a>
87801450:	4618      	mov	r0, r3
87801452:	4290      	cmp	r0, r2
87801454:	4603      	mov	r3, r0
87801456:	d1f7      	bne.n	87801448 <memchr+0x8>
87801458:	2000      	movs	r0, #0
8780145a:	f85d 4b04 	ldr.w	r4, [sp], #4
8780145e:	4770      	bx	lr

87801460 <number>:
87801460:	e92d 4ff0 	stmdb	sp!, {r4, r5, r6, r7, r8, r9, sl, fp, lr}
87801464:	b0a9      	sub	sp, #164	; 0xa4
87801466:	460e      	mov	r6, r1
87801468:	9932      	ldr	r1, [sp, #200]	; 0xc8
8780146a:	4604      	mov	r4, r0
8780146c:	9835      	ldr	r0, [sp, #212]	; 0xd4
8780146e:	390a      	subs	r1, #10
87801470:	bf18      	it	ne
87801472:	2101      	movne	r1, #1
87801474:	f000 0820 	and.w	r8, r0, #32
87801478:	ea01 1050 	and.w	r0, r1, r0, lsr #5
8780147c:	fa5f f888 	uxtb.w	r8, r8
87801480:	9000      	str	r0, [sp, #0]
87801482:	9835      	ldr	r0, [sp, #212]	; 0xd4
87801484:	f010 0010 	ands.w	r0, r0, #16
87801488:	9002      	str	r0, [sp, #8]
8780148a:	bf1e      	ittt	ne
8780148c:	9835      	ldrne	r0, [sp, #212]	; 0xd4
8780148e:	f020 0001 	bicne.w	r0, r0, #1
87801492:	9035      	strne	r0, [sp, #212]	; 0xd4
87801494:	9835      	ldr	r0, [sp, #212]	; 0xd4
87801496:	f010 0002 	ands.w	r0, r0, #2
8780149a:	d012      	beq.n	878014c2 <number+0x62>
8780149c:	2a00      	cmp	r2, #0
8780149e:	f173 0000 	sbcs.w	r0, r3, #0
878014a2:	f2c0 80e4 	blt.w	8780166e <number+0x20e>
878014a6:	9835      	ldr	r0, [sp, #212]	; 0xd4
878014a8:	0740      	lsls	r0, r0, #29
878014aa:	f100 80c6 	bmi.w	8780163a <number+0x1da>
878014ae:	9835      	ldr	r0, [sp, #212]	; 0xd4
878014b0:	f010 0008 	ands.w	r0, r0, #8
878014b4:	d005      	beq.n	878014c2 <number+0x62>
878014b6:	9833      	ldr	r0, [sp, #204]	; 0xcc
878014b8:	3801      	subs	r0, #1
878014ba:	9033      	str	r0, [sp, #204]	; 0xcc
878014bc:	2020      	movs	r0, #32
878014be:	9001      	str	r0, [sp, #4]
878014c0:	e000      	b.n	878014c4 <number+0x64>
878014c2:	9001      	str	r0, [sp, #4]
878014c4:	9800      	ldr	r0, [sp, #0]
878014c6:	b130      	cbz	r0, 878014d6 <number+0x76>
878014c8:	9832      	ldr	r0, [sp, #200]	; 0xc8
878014ca:	2810      	cmp	r0, #16
878014cc:	f000 80c4 	beq.w	87801658 <number+0x1f8>
878014d0:	9833      	ldr	r0, [sp, #204]	; 0xcc
878014d2:	3801      	subs	r0, #1
878014d4:	9033      	str	r0, [sp, #204]	; 0xcc
878014d6:	ea52 0003 	orrs.w	r0, r2, r3
878014da:	d17b      	bne.n	878015d4 <number+0x174>
878014dc:	2200      	movs	r2, #0
878014de:	2501      	movs	r5, #1
878014e0:	2330      	movs	r3, #48	; 0x30
878014e2:	f88d 303c 	strb.w	r3, [sp, #60]	; 0x3c
878014e6:	9b34      	ldr	r3, [sp, #208]	; 0xd0
878014e8:	9933      	ldr	r1, [sp, #204]	; 0xcc
878014ea:	42ab      	cmp	r3, r5
878014ec:	bfb8      	it	lt
878014ee:	462b      	movlt	r3, r5
878014f0:	1ac8      	subs	r0, r1, r3
878014f2:	9935      	ldr	r1, [sp, #212]	; 0xd4
878014f4:	f011 0f11 	tst.w	r1, #17
878014f8:	d10f      	bne.n	8780151a <number+0xba>
878014fa:	f1b0 0e01 	subs.w	lr, r0, #1
878014fe:	f100 81c5 	bmi.w	8780188c <number+0x42c>
87801502:	1821      	adds	r1, r4, r0
87801504:	2720      	movs	r7, #32
87801506:	42a6      	cmp	r6, r4
87801508:	f104 0401 	add.w	r4, r4, #1
8780150c:	bf88      	it	hi
8780150e:	f804 7c01 	strbhi.w	r7, [r4, #-1]
87801512:	428c      	cmp	r4, r1
87801514:	d1f7      	bne.n	87801506 <number+0xa6>
87801516:	ebc0 000e 	rsb	r0, r0, lr
8780151a:	9901      	ldr	r1, [sp, #4]
8780151c:	b139      	cbz	r1, 8780152e <number+0xce>
8780151e:	42b4      	cmp	r4, r6
87801520:	f104 0401 	add.w	r4, r4, #1
87801524:	bf3c      	itt	cc
87801526:	f89d 1004 	ldrbcc.w	r1, [sp, #4]
8780152a:	f804 1c01 	strbcc.w	r1, [r4, #-1]
8780152e:	9900      	ldr	r1, [sp, #0]
87801530:	b149      	cbz	r1, 87801546 <number+0xe6>
87801532:	9f32      	ldr	r7, [sp, #200]	; 0xc8
87801534:	42b4      	cmp	r4, r6
87801536:	bf3c      	itt	cc
87801538:	2130      	movcc	r1, #48	; 0x30
8780153a:	7021      	strbcc	r1, [r4, #0]
8780153c:	1c61      	adds	r1, r4, #1
8780153e:	2f10      	cmp	r7, #16
87801540:	bf18      	it	ne
87801542:	460c      	movne	r4, r1
87801544:	d07f      	beq.n	87801646 <number+0x1e6>
87801546:	9902      	ldr	r1, [sp, #8]
87801548:	b999      	cbnz	r1, 87801572 <number+0x112>
8780154a:	9935      	ldr	r1, [sp, #212]	; 0xd4
8780154c:	f011 0f01 	tst.w	r1, #1
87801550:	bf14      	ite	ne
87801552:	2130      	movne	r1, #48	; 0x30
87801554:	2120      	moveq	r1, #32
87801556:	1e47      	subs	r7, r0, #1
87801558:	f100 819a 	bmi.w	87801890 <number+0x430>
8780155c:	4420      	add	r0, r4
8780155e:	42a6      	cmp	r6, r4
87801560:	f104 0401 	add.w	r4, r4, #1
87801564:	bf88      	it	hi
87801566:	f804 1c01 	strbhi.w	r1, [r4, #-1]
8780156a:	4284      	cmp	r4, r0
8780156c:	d1f7      	bne.n	8780155e <number+0xfe>
8780156e:	f04f 30ff 	mov.w	r0, #4294967295	; 0xffffffff
87801572:	429d      	cmp	r5, r3
87801574:	f280 811f 	bge.w	878017b6 <number+0x356>
87801578:	1b5b      	subs	r3, r3, r5
8780157a:	2130      	movs	r1, #48	; 0x30
8780157c:	4423      	add	r3, r4
8780157e:	42a6      	cmp	r6, r4
87801580:	f104 0401 	add.w	r4, r4, #1
87801584:	bf88      	it	hi
87801586:	f804 1c01 	strbhi.w	r1, [r4, #-1]
8780158a:	429c      	cmp	r4, r3
8780158c:	d1f7      	bne.n	8780157e <number+0x11e>
8780158e:	2a00      	cmp	r2, #0
87801590:	f2c0 810d 	blt.w	878017ae <number+0x34e>
87801594:	1c51      	adds	r1, r2, #1
87801596:	ac0f      	add	r4, sp, #60	; 0x3c
87801598:	4422      	add	r2, r4
8780159a:	4419      	add	r1, r3
8780159c:	429e      	cmp	r6, r3
8780159e:	f103 0301 	add.w	r3, r3, #1
878015a2:	bf88      	it	hi
878015a4:	7814      	ldrbhi	r4, [r2, #0]
878015a6:	f102 32ff 	add.w	r2, r2, #4294967295	; 0xffffffff
878015aa:	bf88      	it	hi
878015ac:	f803 4c01 	strbhi.w	r4, [r3, #-1]
878015b0:	428b      	cmp	r3, r1
878015b2:	d1f3      	bne.n	8780159c <number+0x13c>
878015b4:	2800      	cmp	r0, #0
878015b6:	f340 80fc 	ble.w	878017b2 <number+0x352>
878015ba:	4408      	add	r0, r1
878015bc:	2320      	movs	r3, #32
878015be:	428e      	cmp	r6, r1
878015c0:	f101 0101 	add.w	r1, r1, #1
878015c4:	bf88      	it	hi
878015c6:	f801 3c01 	strbhi.w	r3, [r1, #-1]
878015ca:	4281      	cmp	r1, r0
878015cc:	d1f7      	bne.n	878015be <number+0x15e>
878015ce:	b029      	add	sp, #164	; 0xa4
878015d0:	e8bd 8ff0 	ldmia.w	sp!, {r4, r5, r6, r7, r8, r9, sl, fp, pc}
878015d4:	2900      	cmp	r1, #0
878015d6:	d053      	beq.n	87801680 <number+0x220>
878015d8:	9932      	ldr	r1, [sp, #200]	; 0xc8
878015da:	2910      	cmp	r1, #16
878015dc:	f101 3cff 	add.w	ip, r1, #4294967295	; 0xffffffff
878015e0:	bf12      	itee	ne
878015e2:	2003      	movne	r0, #3
878015e4:	f04f 0c0f 	moveq.w	ip, #15
878015e8:	2004      	moveq	r0, #4
878015ea:	f642 4940 	movw	r9, #11328	; 0x2c40
878015ee:	f10d 073b 	add.w	r7, sp, #59	; 0x3b
878015f2:	f2c8 7980 	movt	r9, #34688	; 0x8780
878015f6:	2500      	movs	r5, #0
878015f8:	f1c0 0a20 	rsb	sl, r0, #32
878015fc:	fa5f fb82 	uxtb.w	fp, r2
87801600:	fa22 f100 	lsr.w	r1, r2, r0
87801604:	fa43 fe00 	asr.w	lr, r3, r0
87801608:	ea0b 020c 	and.w	r2, fp, ip
8780160c:	f819 b002 	ldrb.w	fp, [r9, r2]
87801610:	fa03 f20a 	lsl.w	r2, r3, sl
87801614:	3501      	adds	r5, #1
87801616:	4311      	orrs	r1, r2
87801618:	f1b0 0220 	subs.w	r2, r0, #32
8780161c:	fa43 f202 	asr.w	r2, r3, r2
87801620:	ea48 030b 	orr.w	r3, r8, fp
87801624:	f807 3f01 	strb.w	r3, [r7, #1]!
87801628:	4673      	mov	r3, lr
8780162a:	bf58      	it	pl
8780162c:	4311      	orrpl	r1, r2
8780162e:	460a      	mov	r2, r1
87801630:	ea52 0103 	orrs.w	r1, r2, r3
87801634:	d1e2      	bne.n	878015fc <number+0x19c>
87801636:	1e6a      	subs	r2, r5, #1
87801638:	e755      	b.n	878014e6 <number+0x86>
8780163a:	9833      	ldr	r0, [sp, #204]	; 0xcc
8780163c:	3801      	subs	r0, #1
8780163e:	9033      	str	r0, [sp, #204]	; 0xcc
87801640:	202b      	movs	r0, #43	; 0x2b
87801642:	9001      	str	r0, [sp, #4]
87801644:	e73e      	b.n	878014c4 <number+0x64>
87801646:	428e      	cmp	r6, r1
87801648:	f104 0402 	add.w	r4, r4, #2
8780164c:	bf84      	itt	hi
8780164e:	f048 0858 	orrhi.w	r8, r8, #88	; 0x58
87801652:	f804 8c01 	strbhi.w	r8, [r4, #-1]
87801656:	e776      	b.n	87801546 <number+0xe6>
87801658:	9933      	ldr	r1, [sp, #204]	; 0xcc
8780165a:	3902      	subs	r1, #2
8780165c:	9133      	str	r1, [sp, #204]	; 0xcc
8780165e:	ea52 0103 	orrs.w	r1, r2, r3
87801662:	bf1c      	itt	ne
87801664:	f04f 0c0f 	movne.w	ip, #15
87801668:	2004      	movne	r0, #4
8780166a:	d1be      	bne.n	878015ea <number+0x18a>
8780166c:	e736      	b.n	878014dc <number+0x7c>
8780166e:	9833      	ldr	r0, [sp, #204]	; 0xcc
87801670:	4252      	negs	r2, r2
87801672:	eb63 0343 	sbc.w	r3, r3, r3, lsl #1
87801676:	3801      	subs	r0, #1
87801678:	9033      	str	r0, [sp, #204]	; 0xcc
8780167a:	202d      	movs	r0, #45	; 0x2d
8780167c:	9001      	str	r0, [sp, #4]
8780167e:	e721      	b.n	878014c4 <number+0x64>
87801680:	4692      	mov	sl, r2
87801682:	469b      	mov	fp, r3
87801684:	f248 629f 	movw	r2, #34463	; 0x869f
87801688:	2300      	movs	r3, #0
8780168a:	f2c0 0201 	movt	r2, #1
8780168e:	455b      	cmp	r3, fp
87801690:	bf08      	it	eq
87801692:	4552      	cmpeq	r2, sl
87801694:	e9cd ab0c 	strd	sl, fp, [sp, #48]	; 0x30
87801698:	f080 80fc 	bcs.w	87801894 <number+0x434>
8780169c:	f248 61a0 	movw	r1, #34464	; 0x86a0
878016a0:	f645 20c5 	movw	r0, #23237	; 0x5ac5
878016a4:	f2c0 0101 	movt	r1, #1
878016a8:	f6c0 207c 	movt	r0, #2684	; 0xa7c
878016ac:	f10d 0541 	add.w	r5, sp, #65	; 0x41
878016b0:	e9cd 2304 	strd	r2, r3, [sp, #16]
878016b4:	9106      	str	r1, [sp, #24]
878016b6:	462f      	mov	r7, r5
878016b8:	9003      	str	r0, [sp, #12]
878016ba:	f8cd 801c 	str.w	r8, [sp, #28]
878016be:	9408      	str	r4, [sp, #32]
878016c0:	9609      	str	r6, [sp, #36]	; 0x24
878016c2:	e060      	b.n	87801786 <number+0x326>
878016c4:	9a06      	ldr	r2, [sp, #24]
878016c6:	09d8      	lsrs	r0, r3, #7
878016c8:	f04f 0b00 	mov.w	fp, #0
878016cc:	4603      	mov	r3, r0
878016ce:	fb02 a010 	mls	r0, r2, r0, sl
878016d2:	469a      	mov	sl, r3
878016d4:	e9cd ab0c 	strd	sl, fp, [sp, #48]	; 0x30
878016d8:	f3c0 1803 	ubfx	r8, r0, #4, #4
878016dc:	f3c0 2303 	ubfx	r3, r0, #8, #4
878016e0:	0b02      	lsrs	r2, r0, #12
878016e2:	eb08 0103 	add.w	r1, r8, r3
878016e6:	f000 0e0f 	and.w	lr, r0, #15
878016ea:	eb03 0c83 	add.w	ip, r3, r3, lsl #2
878016ee:	4411      	add	r1, r2
878016f0:	eb02 00c2 	add.w	r0, r2, r2, lsl #3
878016f4:	00ce      	lsls	r6, r1, #3
878016f6:	4440      	add	r0, r8
878016f8:	eba6 0141 	sub.w	r1, r6, r1, lsl #1
878016fc:	26cd      	movs	r6, #205	; 0xcd
878016fe:	4460      	add	r0, ip
87801700:	4471      	add	r1, lr
87801702:	46bc      	mov	ip, r7
87801704:	fb06 f901 	mul.w	r9, r6, r1
87801708:	3705      	adds	r7, #5
8780170a:	ea4f 29d9 	mov.w	r9, r9, lsr #11
8780170e:	4448      	add	r0, r9
87801710:	ea4f 0ec9 	mov.w	lr, r9, lsl #3
87801714:	fb06 f800 	mul.w	r8, r6, r0
87801718:	eb0e 0e49 	add.w	lr, lr, r9, lsl #1
8780171c:	ebce 0101 	rsb	r1, lr, r1
87801720:	ea4f 28d8 	mov.w	r8, r8, lsr #11
87801724:	3130      	adds	r1, #48	; 0x30
87801726:	f807 1c0a 	strb.w	r1, [r7, #-10]
8780172a:	eb08 0343 	add.w	r3, r8, r3, lsl #1
8780172e:	ea4f 0ec8 	mov.w	lr, r8, lsl #3
87801732:	0119      	lsls	r1, r3, #4
87801734:	eb0e 0848 	add.w	r8, lr, r8, lsl #1
87801738:	eba1 0183 	sub.w	r1, r1, r3, lsl #2
8780173c:	ebc8 0800 	rsb	r8, r8, r0
87801740:	f108 0030 	add.w	r0, r8, #48	; 0x30
87801744:	4419      	add	r1, r3
87801746:	f807 0c09 	strb.w	r0, [r7, #-9]
8780174a:	09c9      	lsrs	r1, r1, #7
8780174c:	eb01 0282 	add.w	r2, r1, r2, lsl #2
87801750:	00c8      	lsls	r0, r1, #3
87801752:	fb06 f602 	mul.w	r6, r6, r2
87801756:	eb00 0141 	add.w	r1, r0, r1, lsl #1
8780175a:	1a5b      	subs	r3, r3, r1
8780175c:	3330      	adds	r3, #48	; 0x30
8780175e:	0af6      	lsrs	r6, r6, #11
87801760:	f807 3c08 	strb.w	r3, [r7, #-8]
87801764:	00f3      	lsls	r3, r6, #3
87801766:	f106 0130 	add.w	r1, r6, #48	; 0x30
8780176a:	f807 1c06 	strb.w	r1, [r7, #-6]
8780176e:	eb03 0646 	add.w	r6, r3, r6, lsl #1
87801772:	1b92      	subs	r2, r2, r6
87801774:	3230      	adds	r2, #48	; 0x30
87801776:	f807 2c07 	strb.w	r2, [r7, #-7]
8780177a:	e9dd 2304 	ldrd	r2, r3, [sp, #16]
8780177e:	455b      	cmp	r3, fp
87801780:	bf08      	it	eq
87801782:	4552      	cmpeq	r2, sl
87801784:	d219      	bcs.n	878017ba <number+0x35a>
87801786:	9b03      	ldr	r3, [sp, #12]
87801788:	465c      	mov	r4, fp
8780178a:	2500      	movs	r5, #0
8780178c:	ea4f 125a 	mov.w	r2, sl, lsr #5
87801790:	ea54 0105 	orrs.w	r1, r4, r5
87801794:	fba2 2303 	umull	r2, r3, r2, r3
87801798:	d094      	beq.n	878016c4 <number+0x264>
8780179a:	f248 61a0 	movw	r1, #34464	; 0x86a0
8780179e:	a80c      	add	r0, sp, #48	; 0x30
878017a0:	f2c0 0101 	movt	r1, #1
878017a4:	f7ff fbc2 	bl	87800f2c <__div64_32>
878017a8:	e9dd ab0c 	ldrd	sl, fp, [sp, #48]	; 0x30
878017ac:	e794      	b.n	878016d8 <number+0x278>
878017ae:	4619      	mov	r1, r3
878017b0:	e700      	b.n	878015b4 <number+0x154>
878017b2:	4608      	mov	r0, r1
878017b4:	e70b      	b.n	878015ce <number+0x16e>
878017b6:	4623      	mov	r3, r4
878017b8:	e6e9      	b.n	8780158e <number+0x12e>
878017ba:	f8dd 801c 	ldr.w	r8, [sp, #28]
878017be:	ab0f      	add	r3, sp, #60	; 0x3c
878017c0:	9c08      	ldr	r4, [sp, #32]
878017c2:	9e09      	ldr	r6, [sp, #36]	; 0x24
878017c4:	9303      	str	r3, [sp, #12]
878017c6:	f3ca 1303 	ubfx	r3, sl, #4, #4
878017ca:	f3ca 2903 	ubfx	r9, sl, #8, #4
878017ce:	ea4f 3e1a 	mov.w	lr, sl, lsr #12
878017d2:	eb03 0209 	add.w	r2, r3, r9
878017d6:	f00a 070f 	and.w	r7, sl, #15
878017da:	eb09 0589 	add.w	r5, r9, r9, lsl #2
878017de:	4472      	add	r2, lr
878017e0:	eb0e 00ce 	add.w	r0, lr, lr, lsl #3
878017e4:	00d1      	lsls	r1, r2, #3
878017e6:	f04f 0acd 	mov.w	sl, #205	; 0xcd
878017ea:	4403      	add	r3, r0
878017ec:	eba1 0142 	sub.w	r1, r1, r2, lsl #1
878017f0:	442b      	add	r3, r5
878017f2:	4439      	add	r1, r7
878017f4:	fb0a f201 	mul.w	r2, sl, r1
878017f8:	0ad2      	lsrs	r2, r2, #11
878017fa:	00d0      	lsls	r0, r2, #3
878017fc:	eb00 0042 	add.w	r0, r0, r2, lsl #1
87801800:	189a      	adds	r2, r3, r2
87801802:	bf08      	it	eq
87801804:	f10c 0501 	addeq.w	r5, ip, #1
87801808:	eba1 0100 	sub.w	r1, r1, r0
8780180c:	f101 0130 	add.w	r1, r1, #48	; 0x30
87801810:	f88c 1000 	strb.w	r1, [ip]
87801814:	d037      	beq.n	87801886 <number+0x426>
87801816:	fb0a f102 	mul.w	r1, sl, r2
8780181a:	0ac9      	lsrs	r1, r1, #11
8780181c:	00c8      	lsls	r0, r1, #3
8780181e:	eb01 0349 	add.w	r3, r1, r9, lsl #1
87801822:	eb00 0141 	add.w	r1, r0, r1, lsl #1
87801826:	1a52      	subs	r2, r2, r1
87801828:	3230      	adds	r2, #48	; 0x30
8780182a:	f88c 2001 	strb.w	r2, [ip, #1]
8780182e:	ea53 020e 	orrs.w	r2, r3, lr
87801832:	bf08      	it	eq
87801834:	f10c 0502 	addeq.w	r5, ip, #2
87801838:	d025      	beq.n	87801886 <number+0x426>
8780183a:	011a      	lsls	r2, r3, #4
8780183c:	eba2 0283 	sub.w	r2, r2, r3, lsl #2
87801840:	441a      	add	r2, r3
87801842:	09d2      	lsrs	r2, r2, #7
87801844:	00d1      	lsls	r1, r2, #3
87801846:	eb01 0142 	add.w	r1, r1, r2, lsl #1
8780184a:	eb12 028e 	adds.w	r2, r2, lr, lsl #2
8780184e:	eba3 0301 	sub.w	r3, r3, r1
87801852:	bf08      	it	eq
87801854:	f10c 0503 	addeq.w	r5, ip, #3
87801858:	f103 0330 	add.w	r3, r3, #48	; 0x30
8780185c:	f88c 3002 	strb.w	r3, [ip, #2]
87801860:	d011      	beq.n	87801886 <number+0x426>
87801862:	fb0a f302 	mul.w	r3, sl, r2
87801866:	f10c 0504 	add.w	r5, ip, #4
8780186a:	0adb      	lsrs	r3, r3, #11
8780186c:	00d9      	lsls	r1, r3, #3
8780186e:	eb01 0143 	add.w	r1, r1, r3, lsl #1
87801872:	1a52      	subs	r2, r2, r1
87801874:	3230      	adds	r2, #48	; 0x30
87801876:	f88c 2003 	strb.w	r2, [ip, #3]
8780187a:	b123      	cbz	r3, 87801886 <number+0x426>
8780187c:	f10c 0505 	add.w	r5, ip, #5
87801880:	3330      	adds	r3, #48	; 0x30
87801882:	f88c 3004 	strb.w	r3, [ip, #4]
87801886:	9b03      	ldr	r3, [sp, #12]
87801888:	1aed      	subs	r5, r5, r3
8780188a:	e6d4      	b.n	87801636 <number+0x1d6>
8780188c:	4670      	mov	r0, lr
8780188e:	e644      	b.n	8780151a <number+0xba>
87801890:	4638      	mov	r0, r7
87801892:	e66e      	b.n	87801572 <number+0x112>
87801894:	ab0f      	add	r3, sp, #60	; 0x3c
87801896:	9303      	str	r3, [sp, #12]
87801898:	469c      	mov	ip, r3
8780189a:	e794      	b.n	878017c6 <number+0x366>

8780189c <simple_strtoul>:
8780189c:	b5f0      	push	{r4, r5, r6, r7, lr}
8780189e:	4606      	mov	r6, r0
878018a0:	b96a      	cbnz	r2, 878018be <simple_strtoul+0x22>
878018a2:	7804      	ldrb	r4, [r0, #0]
878018a4:	2c30      	cmp	r4, #48	; 0x30
878018a6:	d043      	beq.n	87801930 <simple_strtoul+0x94>
878018a8:	f642 4764 	movw	r7, #11364	; 0x2c64
878018ac:	4623      	mov	r3, r4
878018ae:	f2c8 7780 	movt	r7, #34688	; 0x8780
878018b2:	220a      	movs	r2, #10
878018b4:	f817 e004 	ldrb.w	lr, [r7, r4]
878018b8:	f00e 0544 	and.w	r5, lr, #68	; 0x44
878018bc:	e00b      	b.n	878018d6 <simple_strtoul+0x3a>
878018be:	2a10      	cmp	r2, #16
878018c0:	d029      	beq.n	87801916 <simple_strtoul+0x7a>
878018c2:	7803      	ldrb	r3, [r0, #0]
878018c4:	f642 4764 	movw	r7, #11364	; 0x2c64
878018c8:	f2c8 7780 	movt	r7, #34688	; 0x8780
878018cc:	f817 e003 	ldrb.w	lr, [r7, r3]
878018d0:	461c      	mov	r4, r3
878018d2:	f00e 0544 	and.w	r5, lr, #68	; 0x44
878018d6:	4628      	mov	r0, r5
878018d8:	b1d5      	cbz	r5, 87801910 <simple_strtoul+0x74>
878018da:	2000      	movs	r0, #0
878018dc:	e009      	b.n	878018f2 <simple_strtoul+0x56>
878018de:	f816 3f01 	ldrb.w	r3, [r6, #1]!
878018e2:	fb02 4000 	mla	r0, r2, r0, r4
878018e6:	f817 e003 	ldrb.w	lr, [r7, r3]
878018ea:	461c      	mov	r4, r3
878018ec:	f01e 0f44 	tst.w	lr, #68	; 0x44
878018f0:	d00e      	beq.n	87801910 <simple_strtoul+0x74>
878018f2:	f01e 0f04 	tst.w	lr, #4
878018f6:	f1a4 0430 	sub.w	r4, r4, #48	; 0x30
878018fa:	d107      	bne.n	8780190c <simple_strtoul+0x70>
878018fc:	f1a3 0420 	sub.w	r4, r3, #32
87801900:	f01e 0f02 	tst.w	lr, #2
87801904:	bf18      	it	ne
87801906:	b2e3      	uxtbne	r3, r4
87801908:	f1a3 0437 	sub.w	r4, r3, #55	; 0x37
8780190c:	4294      	cmp	r4, r2
8780190e:	d3e6      	bcc.n	878018de <simple_strtoul+0x42>
87801910:	b101      	cbz	r1, 87801914 <simple_strtoul+0x78>
87801912:	600e      	str	r6, [r1, #0]
87801914:	bdf0      	pop	{r4, r5, r6, r7, pc}
87801916:	7804      	ldrb	r4, [r0, #0]
87801918:	2c30      	cmp	r4, #48	; 0x30
8780191a:	d020      	beq.n	8780195e <simple_strtoul+0xc2>
8780191c:	f642 4764 	movw	r7, #11364	; 0x2c64
87801920:	4623      	mov	r3, r4
87801922:	f2c8 7780 	movt	r7, #34688	; 0x8780
87801926:	f817 e004 	ldrb.w	lr, [r7, r4]
8780192a:	f00e 0544 	and.w	r5, lr, #68	; 0x44
8780192e:	e7d2      	b.n	878018d6 <simple_strtoul+0x3a>
87801930:	7843      	ldrb	r3, [r0, #1]
87801932:	f642 4764 	movw	r7, #11364	; 0x2c64
87801936:	f2c8 7780 	movt	r7, #34688	; 0x8780
8780193a:	3001      	adds	r0, #1
8780193c:	f817 e003 	ldrb.w	lr, [r7, r3]
87801940:	461c      	mov	r4, r3
87801942:	f01e 0f02 	tst.w	lr, #2
87801946:	bf16      	itet	ne
87801948:	f1a3 0220 	subne.w	r2, r3, #32
8780194c:	461a      	moveq	r2, r3
8780194e:	b2d2      	uxtbne	r2, r2
87801950:	2a58      	cmp	r2, #88	; 0x58
87801952:	d01d      	beq.n	87801990 <simple_strtoul+0xf4>
87801954:	4606      	mov	r6, r0
87801956:	f00e 0544 	and.w	r5, lr, #68	; 0x44
8780195a:	2208      	movs	r2, #8
8780195c:	e7bb      	b.n	878018d6 <simple_strtoul+0x3a>
8780195e:	7843      	ldrb	r3, [r0, #1]
87801960:	f642 4764 	movw	r7, #11364	; 0x2c64
87801964:	f2c8 7780 	movt	r7, #34688	; 0x8780
87801968:	5cf8      	ldrb	r0, [r7, r3]
8780196a:	0780      	lsls	r0, r0, #30
8780196c:	bf44      	itt	mi
8780196e:	3b20      	submi	r3, #32
87801970:	b2db      	uxtbmi	r3, r3
87801972:	2b58      	cmp	r3, #88	; 0x58
87801974:	bf0f      	iteee	eq
87801976:	78b3      	ldrbeq	r3, [r6, #2]
87801978:	2430      	movne	r4, #48	; 0x30
8780197a:	f897 e030 	ldrbne.w	lr, [r7, #48]	; 0x30
8780197e:	4623      	movne	r3, r4
87801980:	bf02      	ittt	eq
87801982:	3602      	addeq	r6, #2
87801984:	f817 e003 	ldrbeq.w	lr, [r7, r3]
87801988:	461c      	moveq	r4, r3
8780198a:	f00e 0544 	and.w	r5, lr, #68	; 0x44
8780198e:	e7a2      	b.n	878018d6 <simple_strtoul+0x3a>
87801990:	78b5      	ldrb	r5, [r6, #2]
87801992:	5d7a      	ldrb	r2, [r7, r5]
87801994:	f012 0f44 	tst.w	r2, #68	; 0x44
87801998:	d0dc      	beq.n	87801954 <simple_strtoul+0xb8>
8780199a:	4696      	mov	lr, r2
8780199c:	462c      	mov	r4, r5
8780199e:	3602      	adds	r6, #2
878019a0:	462b      	mov	r3, r5
878019a2:	2210      	movs	r2, #16
878019a4:	e799      	b.n	878018da <simple_strtoul+0x3e>
878019a6:	bf00      	nop

878019a8 <simple_strtol>:
878019a8:	b510      	push	{r4, lr}
878019aa:	7804      	ldrb	r4, [r0, #0]
878019ac:	2c2d      	cmp	r4, #45	; 0x2d
878019ae:	d003      	beq.n	878019b8 <simple_strtol+0x10>
878019b0:	e8bd 4010 	ldmia.w	sp!, {r4, lr}
878019b4:	f7ff bf72 	b.w	8780189c <simple_strtoul>
878019b8:	3001      	adds	r0, #1
878019ba:	f7ff ff6f 	bl	8780189c <simple_strtoul>
878019be:	4240      	negs	r0, r0
878019c0:	bd10      	pop	{r4, pc}
878019c2:	bf00      	nop

878019c4 <simple_strtoull>:
878019c4:	e92d 4ff0 	stmdb	sp!, {r4, r5, r6, r7, r8, r9, sl, fp, lr}
878019c8:	4684      	mov	ip, r0
878019ca:	468a      	mov	sl, r1
878019cc:	4616      	mov	r6, r2
878019ce:	2a00      	cmp	r2, #0
878019d0:	d13f      	bne.n	87801a52 <simple_strtoull+0x8e>
878019d2:	7802      	ldrb	r2, [r0, #0]
878019d4:	2a30      	cmp	r2, #48	; 0x30
878019d6:	d056      	beq.n	87801a86 <simple_strtoull+0xc2>
878019d8:	f642 4b64 	movw	fp, #11364	; 0x2c64
878019dc:	4613      	mov	r3, r2
878019de:	f2c8 7b80 	movt	fp, #34688	; 0x8780
878019e2:	260a      	movs	r6, #10
878019e4:	f81b e002 	ldrb.w	lr, [fp, r2]
878019e8:	f00e 0144 	and.w	r1, lr, #68	; 0x44
878019ec:	2900      	cmp	r1, #0
878019ee:	d061      	beq.n	87801ab4 <simple_strtoull+0xf0>
878019f0:	2700      	movs	r7, #0
878019f2:	2000      	movs	r0, #0
878019f4:	2100      	movs	r1, #0
878019f6:	e00e      	b.n	87801a16 <simple_strtoull+0x52>
878019f8:	f81c 3f01 	ldrb.w	r3, [ip, #1]!
878019fc:	fb06 2101 	mla	r1, r6, r1, r2
87801a00:	eb14 0008 	adds.w	r0, r4, r8
87801a04:	f81b e003 	ldrb.w	lr, [fp, r3]
87801a08:	461a      	mov	r2, r3
87801a0a:	4489      	add	r9, r1
87801a0c:	eb45 0109 	adc.w	r1, r5, r9
87801a10:	f01e 0f44 	tst.w	lr, #68	; 0x44
87801a14:	d016      	beq.n	87801a44 <simple_strtoull+0x80>
87801a16:	f01e 0f04 	tst.w	lr, #4
87801a1a:	f1a2 0430 	sub.w	r4, r2, #48	; 0x30
87801a1e:	d108      	bne.n	87801a32 <simple_strtoull+0x6e>
87801a20:	3b20      	subs	r3, #32
87801a22:	f01e 0f02 	tst.w	lr, #2
87801a26:	b2db      	uxtb	r3, r3
87801a28:	f1a2 0437 	sub.w	r4, r2, #55	; 0x37
87801a2c:	bf18      	it	ne
87801a2e:	f1a3 0437 	subne.w	r4, r3, #55	; 0x37
87801a32:	17e5      	asrs	r5, r4, #31
87801a34:	fb00 f207 	mul.w	r2, r0, r7
87801a38:	42bd      	cmp	r5, r7
87801a3a:	fba0 8906 	umull	r8, r9, r0, r6
87801a3e:	bf08      	it	eq
87801a40:	42b4      	cmpeq	r4, r6
87801a42:	d3d9      	bcc.n	878019f8 <simple_strtoull+0x34>
87801a44:	f1ba 0f00 	cmp.w	sl, #0
87801a48:	d001      	beq.n	87801a4e <simple_strtoull+0x8a>
87801a4a:	f8ca c000 	str.w	ip, [sl]
87801a4e:	e8bd 8ff0 	ldmia.w	sp!, {r4, r5, r6, r7, r8, r9, sl, fp, pc}
87801a52:	2a10      	cmp	r2, #16
87801a54:	d00a      	beq.n	87801a6c <simple_strtoull+0xa8>
87801a56:	7803      	ldrb	r3, [r0, #0]
87801a58:	f642 4b64 	movw	fp, #11364	; 0x2c64
87801a5c:	f2c8 7b80 	movt	fp, #34688	; 0x8780
87801a60:	f81b e003 	ldrb.w	lr, [fp, r3]
87801a64:	461a      	mov	r2, r3
87801a66:	f00e 0144 	and.w	r1, lr, #68	; 0x44
87801a6a:	e7bf      	b.n	878019ec <simple_strtoull+0x28>
87801a6c:	7802      	ldrb	r2, [r0, #0]
87801a6e:	2a30      	cmp	r2, #48	; 0x30
87801a70:	d031      	beq.n	87801ad6 <simple_strtoull+0x112>
87801a72:	f642 4b64 	movw	fp, #11364	; 0x2c64
87801a76:	4613      	mov	r3, r2
87801a78:	f2c8 7b80 	movt	fp, #34688	; 0x8780
87801a7c:	f81b e002 	ldrb.w	lr, [fp, r2]
87801a80:	f00e 0144 	and.w	r1, lr, #68	; 0x44
87801a84:	e7b2      	b.n	878019ec <simple_strtoull+0x28>
87801a86:	7843      	ldrb	r3, [r0, #1]
87801a88:	f642 4b64 	movw	fp, #11364	; 0x2c64
87801a8c:	f2c8 7b80 	movt	fp, #34688	; 0x8780
87801a90:	3001      	adds	r0, #1
87801a92:	f81b e003 	ldrb.w	lr, [fp, r3]
87801a96:	461a      	mov	r2, r3
87801a98:	f01e 0f02 	tst.w	lr, #2
87801a9c:	bf16      	itet	ne
87801a9e:	f1a3 0120 	subne.w	r1, r3, #32
87801aa2:	4619      	moveq	r1, r3
87801aa4:	b2c9      	uxtbne	r1, r1
87801aa6:	2958      	cmp	r1, #88	; 0x58
87801aa8:	d007      	beq.n	87801aba <simple_strtoull+0xf6>
87801aaa:	4684      	mov	ip, r0
87801aac:	f00e 0144 	and.w	r1, lr, #68	; 0x44
87801ab0:	2608      	movs	r6, #8
87801ab2:	e79b      	b.n	878019ec <simple_strtoull+0x28>
87801ab4:	2000      	movs	r0, #0
87801ab6:	2100      	movs	r1, #0
87801ab8:	e7c4      	b.n	87801a44 <simple_strtoull+0x80>
87801aba:	f89c 4002 	ldrb.w	r4, [ip, #2]
87801abe:	f81b 1004 	ldrb.w	r1, [fp, r4]
87801ac2:	f011 0f44 	tst.w	r1, #68	; 0x44
87801ac6:	d0f0      	beq.n	87801aaa <simple_strtoull+0xe6>
87801ac8:	4622      	mov	r2, r4
87801aca:	f10c 0c02 	add.w	ip, ip, #2
87801ace:	468e      	mov	lr, r1
87801ad0:	4623      	mov	r3, r4
87801ad2:	2610      	movs	r6, #16
87801ad4:	e78c      	b.n	878019f0 <simple_strtoull+0x2c>
87801ad6:	7843      	ldrb	r3, [r0, #1]
87801ad8:	f642 4b64 	movw	fp, #11364	; 0x2c64
87801adc:	f2c8 7b80 	movt	fp, #34688	; 0x8780
87801ae0:	f81b 2003 	ldrb.w	r2, [fp, r3]
87801ae4:	0792      	lsls	r2, r2, #30
87801ae6:	bf44      	itt	mi
87801ae8:	3b20      	submi	r3, #32
87801aea:	b2db      	uxtbmi	r3, r3
87801aec:	2b58      	cmp	r3, #88	; 0x58
87801aee:	bf0f      	iteee	eq
87801af0:	7883      	ldrbeq	r3, [r0, #2]
87801af2:	2230      	movne	r2, #48	; 0x30
87801af4:	f89b e030 	ldrbne.w	lr, [fp, #48]	; 0x30
87801af8:	4613      	movne	r3, r2
87801afa:	bf02      	ittt	eq
87801afc:	f100 0c02 	addeq.w	ip, r0, #2
87801b00:	f81b e003 	ldrbeq.w	lr, [fp, r3]
87801b04:	461a      	moveq	r2, r3
87801b06:	f00e 0144 	and.w	r1, lr, #68	; 0x44
87801b0a:	e76f      	b.n	878019ec <simple_strtoull+0x28>

87801b0c <simple_strtoll>:
87801b0c:	b510      	push	{r4, lr}
87801b0e:	7804      	ldrb	r4, [r0, #0]
87801b10:	2c2d      	cmp	r4, #45	; 0x2d
87801b12:	d003      	beq.n	87801b1c <simple_strtoll+0x10>
87801b14:	e8bd 4010 	ldmia.w	sp!, {r4, lr}
87801b18:	f7ff bf54 	b.w	878019c4 <simple_strtoull>
87801b1c:	3001      	adds	r0, #1
87801b1e:	f7ff ff51 	bl	878019c4 <simple_strtoull>
87801b22:	4240      	negs	r0, r0
87801b24:	eb61 0141 	sbc.w	r1, r1, r1, lsl #1
87801b28:	bd10      	pop	{r4, pc}
87801b2a:	bf00      	nop

87801b2c <vsnprintf>:
87801b2c:	e92d 4ff0 	stmdb	sp!, {r4, r5, r6, r7, r8, r9, sl, fp, lr}
87801b30:	f1b1 0b00 	subs.w	fp, r1, #0
87801b34:	b089      	sub	sp, #36	; 0x24
87801b36:	f2c0 82f6 	blt.w	87802126 <vsnprintf+0x5fa>
87801b3a:	f10b 38ff 	add.w	r8, fp, #4294967295	; 0xffffffff
87801b3e:	469a      	mov	sl, r3
87801b40:	4480      	add	r8, r0
87801b42:	1e43      	subs	r3, r0, #1
87801b44:	4598      	cmp	r8, r3
87801b46:	4605      	mov	r5, r0
87801b48:	4614      	mov	r4, r2
87801b4a:	7810      	ldrb	r0, [r2, #0]
87801b4c:	f0c0 81c7 	bcc.w	87801ede <vsnprintf+0x3b2>
87801b50:	2800      	cmp	r0, #0
87801b52:	f000 82f3 	beq.w	8780213c <vsnprintf+0x610>
87801b56:	9505      	str	r5, [sp, #20]
87801b58:	f642 4350 	movw	r3, #11344	; 0x2c50
87801b5c:	f642 4964 	movw	r9, #11364	; 0x2c64
87801b60:	f2c8 7380 	movt	r3, #34688	; 0x8780
87801b64:	f2c8 7980 	movt	r9, #34688	; 0x8780
87801b68:	9306      	str	r3, [sp, #24]
87801b6a:	e008      	b.n	87801b7e <vsnprintf+0x52>
87801b6c:	45a8      	cmp	r8, r5
87801b6e:	bf28      	it	cs
87801b70:	7028      	strbcs	r0, [r5, #0]
87801b72:	7860      	ldrb	r0, [r4, #1]
87801b74:	3501      	adds	r5, #1
87801b76:	3401      	adds	r4, #1
87801b78:	2800      	cmp	r0, #0
87801b7a:	f000 8140 	beq.w	87801dfe <vsnprintf+0x2d2>
87801b7e:	2825      	cmp	r0, #37	; 0x25
87801b80:	bf08      	it	eq
87801b82:	2700      	moveq	r7, #0
87801b84:	d1f2      	bne.n	87801b6c <vsnprintf+0x40>
87801b86:	7861      	ldrb	r1, [r4, #1]
87801b88:	1c62      	adds	r2, r4, #1
87801b8a:	f1a1 0320 	sub.w	r3, r1, #32
87801b8e:	2b10      	cmp	r3, #16
87801b90:	d81e      	bhi.n	87801bd0 <vsnprintf+0xa4>
87801b92:	e8df f003 	tbb	[pc, r3]
87801b96:	151d1d19 	ldrne	r1, [sp, #-3353]	; 0xfffff2e7
87801b9a:	1d1d1d1d 	ldcne	13, cr1, [sp, #-116]	; 0xffffff8c
87801b9e:	111d1d1d 	tstne	sp, sp, lsl sp
87801ba2:	1d1d0d1d 	ldcne	13, cr0, [sp, #-116]	; 0xffffff8c
87801ba6:	f0470009 			; <UNDEFINED> instruction: 0xf0470009
87801baa:	0701      	lsls	r1, r0, #28
87801bac:	4614      	mov	r4, r2
87801bae:	e7ea      	b.n	87801b86 <vsnprintf+0x5a>
87801bb0:	f047 0710 	orr.w	r7, r7, #16
87801bb4:	4614      	mov	r4, r2
87801bb6:	e7e6      	b.n	87801b86 <vsnprintf+0x5a>
87801bb8:	f047 0704 	orr.w	r7, r7, #4
87801bbc:	4614      	mov	r4, r2
87801bbe:	e7e2      	b.n	87801b86 <vsnprintf+0x5a>
87801bc0:	f047 0720 	orr.w	r7, r7, #32
87801bc4:	4614      	mov	r4, r2
87801bc6:	e7de      	b.n	87801b86 <vsnprintf+0x5a>
87801bc8:	f047 0708 	orr.w	r7, r7, #8
87801bcc:	4614      	mov	r4, r2
87801bce:	e7da      	b.n	87801b86 <vsnprintf+0x5a>
87801bd0:	f819 3001 	ldrb.w	r3, [r9, r1]
87801bd4:	4608      	mov	r0, r1
87801bd6:	075e      	lsls	r6, r3, #29
87801bd8:	f140 80dd 	bpl.w	87801d96 <vsnprintf+0x26a>
87801bdc:	2600      	movs	r6, #0
87801bde:	00f3      	lsls	r3, r6, #3
87801be0:	eb03 0646 	add.w	r6, r3, r6, lsl #1
87801be4:	4406      	add	r6, r0
87801be6:	f812 0f01 	ldrb.w	r0, [r2, #1]!
87801bea:	3e30      	subs	r6, #48	; 0x30
87801bec:	f819 3000 	ldrb.w	r3, [r9, r0]
87801bf0:	075c      	lsls	r4, r3, #29
87801bf2:	d4f4      	bmi.n	87801bde <vsnprintf+0xb2>
87801bf4:	4603      	mov	r3, r0
87801bf6:	2b2e      	cmp	r3, #46	; 0x2e
87801bf8:	bf18      	it	ne
87801bfa:	f04f 31ff 	movne.w	r1, #4294967295	; 0xffffffff
87801bfe:	f000 80e2 	beq.w	87801dc6 <vsnprintf+0x29a>
87801c02:	f003 00df 	and.w	r0, r3, #223	; 0xdf
87801c06:	285a      	cmp	r0, #90	; 0x5a
87801c08:	bf18      	it	ne
87801c0a:	284c      	cmpne	r0, #76	; 0x4c
87801c0c:	bf0c      	ite	eq
87801c0e:	2001      	moveq	r0, #1
87801c10:	2000      	movne	r0, #0
87801c12:	2b68      	cmp	r3, #104	; 0x68
87801c14:	bf08      	it	eq
87801c16:	f040 0001 	orreq.w	r0, r0, #1
87801c1a:	2800      	cmp	r0, #0
87801c1c:	d15b      	bne.n	87801cd6 <vsnprintf+0x1aa>
87801c1e:	f04f 30ff 	mov.w	r0, #4294967295	; 0xffffffff
87801c22:	3b25      	subs	r3, #37	; 0x25
87801c24:	2b53      	cmp	r3, #83	; 0x53
87801c26:	f200 8234 	bhi.w	87802092 <vsnprintf+0x566>
87801c2a:	e8df f013 	tbh	[pc, r3, lsl #1]
87801c2e:	023201e7 	eorseq	r0, r2, #-1073741767	; 0xc0000039
87801c32:	02320232 	eorseq	r0, r2, #536870915	; 0x20000003
87801c36:	02320232 	eorseq	r0, r2, #536870915	; 0x20000003
87801c3a:	02320232 	eorseq	r0, r2, #536870915	; 0x20000003
87801c3e:	02320232 	eorseq	r0, r2, #536870915	; 0x20000003
87801c42:	02320232 	eorseq	r0, r2, #536870915	; 0x20000003
87801c46:	02320232 	eorseq	r0, r2, #536870915	; 0x20000003
87801c4a:	02320232 	eorseq	r0, r2, #536870915	; 0x20000003
87801c4e:	02320232 	eorseq	r0, r2, #536870915	; 0x20000003
87801c52:	02320232 	eorseq	r0, r2, #536870915	; 0x20000003
87801c56:	02320232 	eorseq	r0, r2, #536870915	; 0x20000003
87801c5a:	02320232 	eorseq	r0, r2, #536870915	; 0x20000003
87801c5e:	02320232 	eorseq	r0, r2, #536870915	; 0x20000003
87801c62:	02320232 	eorseq	r0, r2, #536870915	; 0x20000003
87801c66:	02320232 	eorseq	r0, r2, #536870915	; 0x20000003
87801c6a:	02320232 	eorseq	r0, r2, #536870915	; 0x20000003
87801c6e:	02320232 	eorseq	r0, r2, #536870915	; 0x20000003
87801c72:	02320232 	eorseq	r0, r2, #536870915	; 0x20000003
87801c76:	02320232 	eorseq	r0, r2, #536870915	; 0x20000003
87801c7a:	02320232 	eorseq	r0, r2, #536870915	; 0x20000003
87801c7e:	02320232 	eorseq	r0, r2, #536870915	; 0x20000003
87801c82:	02320232 	eorseq	r0, r2, #536870915	; 0x20000003
87801c86:	02320232 	eorseq	r0, r2, #536870915	; 0x20000003
87801c8a:	02320232 	eorseq	r0, r2, #536870915	; 0x20000003
87801c8e:	02320232 	eorseq	r0, r2, #536870915	; 0x20000003
87801c92:	016e0232 	cmneq	lr, r2, lsr r2
87801c96:	02320232 	eorseq	r0, r2, #536870915	; 0x20000003
87801c9a:	02320232 	eorseq	r0, r2, #536870915	; 0x20000003
87801c9e:	02320232 	eorseq	r0, r2, #536870915	; 0x20000003
87801ca2:	02320232 	eorseq	r0, r2, #536870915	; 0x20000003
87801ca6:	02320232 	eorseq	r0, r2, #536870915	; 0x20000003
87801caa:	01b301b9 			; <UNDEFINED> instruction: 0x01b301b9
87801cae:	02320232 	eorseq	r0, r2, #536870915	; 0x20000003
87801cb2:	02320232 	eorseq	r0, r2, #536870915	; 0x20000003
87801cb6:	023201b3 	eorseq	r0, r2, #-1073741780	; 0xc000002c
87801cba:	02320232 	eorseq	r0, r2, #536870915	; 0x20000003
87801cbe:	025a0232 	subseq	r0, sl, #536870915	; 0x20000003
87801cc2:	019701af 	orrseq	r0, r7, pc, lsr #3
87801cc6:	02320232 	eorseq	r0, r2, #536870915	; 0x20000003
87801cca:	023201ed 	eorseq	r0, r2, #1073741883	; 0x4000003b
87801cce:	0232026c 	eorseq	r0, r2, #108, 4	; 0xc0000006
87801cd2:	026a0232 	rsbeq	r0, sl, #536870915	; 0x20000003
87801cd6:	4618      	mov	r0, r3
87801cd8:	1c54      	adds	r4, r2, #1
87801cda:	286c      	cmp	r0, #108	; 0x6c
87801cdc:	7853      	ldrb	r3, [r2, #1]
87801cde:	f000 809c 	beq.w	87801e1a <vsnprintf+0x2ee>
87801ce2:	3b25      	subs	r3, #37	; 0x25
87801ce4:	2b53      	cmp	r3, #83	; 0x53
87801ce6:	f200 81d5 	bhi.w	87802094 <vsnprintf+0x568>
87801cea:	e8df f013 	tbh	[pc, r3, lsl #1]
87801cee:	01d30188 	bicseq	r0, r3, r8, lsl #3
87801cf2:	01d301d3 	ldrsbeq	r0, [r3, #19]
87801cf6:	01d301d3 	ldrsbeq	r0, [r3, #19]
87801cfa:	01d301d3 	ldrsbeq	r0, [r3, #19]
87801cfe:	01d301d3 	ldrsbeq	r0, [r3, #19]
87801d02:	01d301d3 	ldrsbeq	r0, [r3, #19]
87801d06:	01d301d3 	ldrsbeq	r0, [r3, #19]
87801d0a:	01d301d3 	ldrsbeq	r0, [r3, #19]
87801d0e:	01d301d3 	ldrsbeq	r0, [r3, #19]
87801d12:	01d301d3 	ldrsbeq	r0, [r3, #19]
87801d16:	01d301d3 	ldrsbeq	r0, [r3, #19]
87801d1a:	01d301d3 	ldrsbeq	r0, [r3, #19]
87801d1e:	01d301d3 	ldrsbeq	r0, [r3, #19]
87801d22:	01d301d3 	ldrsbeq	r0, [r3, #19]
87801d26:	01d301d3 	ldrsbeq	r0, [r3, #19]
87801d2a:	01d301d3 	ldrsbeq	r0, [r3, #19]
87801d2e:	01d301d3 	ldrsbeq	r0, [r3, #19]
87801d32:	01d301d3 	ldrsbeq	r0, [r3, #19]
87801d36:	01d301d3 	ldrsbeq	r0, [r3, #19]
87801d3a:	01d301d3 	ldrsbeq	r0, [r3, #19]
87801d3e:	01d301d3 	ldrsbeq	r0, [r3, #19]
87801d42:	01d301d3 	ldrsbeq	r0, [r3, #19]
87801d46:	01d301d3 	ldrsbeq	r0, [r3, #19]
87801d4a:	01d301d3 	ldrsbeq	r0, [r3, #19]
87801d4e:	01d301d3 	ldrsbeq	r0, [r3, #19]
87801d52:	010f01d3 	ldrdeq	r0, [pc, -r3]
87801d56:	01d301d3 	ldrsbeq	r0, [r3, #19]
87801d5a:	01d301d3 	ldrsbeq	r0, [r3, #19]
87801d5e:	01d301d3 	ldrsbeq	r0, [r3, #19]
87801d62:	01d301d3 	ldrsbeq	r0, [r3, #19]
87801d66:	01d301d3 	ldrsbeq	r0, [r3, #19]
87801d6a:	0154015a 	cmpeq	r4, sl, asr r1
87801d6e:	01d301d3 	ldrsbeq	r0, [r3, #19]
87801d72:	01d301d3 	ldrsbeq	r0, [r3, #19]
87801d76:	01d30154 	bicseq	r0, r3, r4, asr r1
87801d7a:	01d301d3 	ldrsbeq	r0, [r3, #19]
87801d7e:	01fb01d3 	ldrsbeq	r0, [fp, #19]!
87801d82:	01380150 	teqeq	r8, r0, asr r1
87801d86:	01d301d3 	ldrsbeq	r0, [r3, #19]
87801d8a:	01d3018e 	bicseq	r0, r3, lr, lsl #3
87801d8e:	01d3012e 	bicseq	r0, r3, lr, lsr #2
87801d92:	011101d3 			; <UNDEFINED> instruction: 0x011101d3
87801d96:	292a      	cmp	r1, #42	; 0x2a
87801d98:	bf1c      	itt	ne
87801d9a:	460b      	movne	r3, r1
87801d9c:	f04f 36ff 	movne.w	r6, #4294967295	; 0xffffffff
87801da0:	f47f af29 	bne.w	87801bf6 <vsnprintf+0xca>
87801da4:	f8da 6000 	ldr.w	r6, [sl]
87801da8:	1ca2      	adds	r2, r4, #2
87801daa:	78a3      	ldrb	r3, [r4, #2]
87801dac:	f10a 0a04 	add.w	sl, sl, #4
87801db0:	2e00      	cmp	r6, #0
87801db2:	bfbc      	itt	lt
87801db4:	4276      	neglt	r6, r6
87801db6:	f047 0710 	orrlt.w	r7, r7, #16
87801dba:	2b2e      	cmp	r3, #46	; 0x2e
87801dbc:	bf18      	it	ne
87801dbe:	f04f 31ff 	movne.w	r1, #4294967295	; 0xffffffff
87801dc2:	f47f af1e 	bne.w	87801c02 <vsnprintf+0xd6>
87801dc6:	7853      	ldrb	r3, [r2, #1]
87801dc8:	1c54      	adds	r4, r2, #1
87801dca:	f819 0003 	ldrb.w	r0, [r9, r3]
87801dce:	f000 0004 	and.w	r0, r0, #4
87801dd2:	f000 01ff 	and.w	r1, r0, #255	; 0xff
87801dd6:	2800      	cmp	r0, #0
87801dd8:	f000 808a 	beq.w	87801ef0 <vsnprintf+0x3c4>
87801ddc:	2000      	movs	r0, #0
87801dde:	4622      	mov	r2, r4
87801de0:	4601      	mov	r1, r0
87801de2:	00cc      	lsls	r4, r1, #3
87801de4:	eb04 0141 	add.w	r1, r4, r1, lsl #1
87801de8:	4419      	add	r1, r3
87801dea:	f812 3f01 	ldrb.w	r3, [r2, #1]!
87801dee:	3930      	subs	r1, #48	; 0x30
87801df0:	f819 0003 	ldrb.w	r0, [r9, r3]
87801df4:	0740      	lsls	r0, r0, #29
87801df6:	d4f4      	bmi.n	87801de2 <vsnprintf+0x2b6>
87801df8:	ea21 71e1 	bic.w	r1, r1, r1, asr #31
87801dfc:	e701      	b.n	87801c02 <vsnprintf+0xd6>
87801dfe:	462b      	mov	r3, r5
87801e00:	9a05      	ldr	r2, [sp, #20]
87801e02:	1aa8      	subs	r0, r5, r2
87801e04:	4543      	cmp	r3, r8
87801e06:	d965      	bls.n	87801ed4 <vsnprintf+0x3a8>
87801e08:	f1bb 0f00 	cmp.w	fp, #0
87801e0c:	d002      	beq.n	87801e14 <vsnprintf+0x2e8>
87801e0e:	2300      	movs	r3, #0
87801e10:	f888 3000 	strb.w	r3, [r8]
87801e14:	b009      	add	sp, #36	; 0x24
87801e16:	e8bd 8ff0 	ldmia.w	sp!, {r4, r5, r6, r7, r8, r9, sl, fp, pc}
87801e1a:	2b6c      	cmp	r3, #108	; 0x6c
87801e1c:	f000 816b 	beq.w	878020f6 <vsnprintf+0x5ca>
87801e20:	3b25      	subs	r3, #37	; 0x25
87801e22:	2b53      	cmp	r3, #83	; 0x53
87801e24:	f200 8136 	bhi.w	87802094 <vsnprintf+0x568>
87801e28:	e8df f013 	tbh	[pc, r3, lsl #1]
87801e2c:	013400e9 	teqeq	r4, r9, ror #1
87801e30:	01340134 	teqeq	r4, r4, lsr r1
87801e34:	01340134 	teqeq	r4, r4, lsr r1
87801e38:	01340134 	teqeq	r4, r4, lsr r1
87801e3c:	01340134 	teqeq	r4, r4, lsr r1
87801e40:	01340134 	teqeq	r4, r4, lsr r1
87801e44:	01340134 	teqeq	r4, r4, lsr r1
87801e48:	01340134 	teqeq	r4, r4, lsr r1
87801e4c:	01340134 	teqeq	r4, r4, lsr r1
87801e50:	01340134 	teqeq	r4, r4, lsr r1
87801e54:	01340134 	teqeq	r4, r4, lsr r1
87801e58:	01340134 	teqeq	r4, r4, lsr r1
87801e5c:	01340134 	teqeq	r4, r4, lsr r1
87801e60:	01340134 	teqeq	r4, r4, lsr r1
87801e64:	01340134 	teqeq	r4, r4, lsr r1
87801e68:	01340134 	teqeq	r4, r4, lsr r1
87801e6c:	01340134 	teqeq	r4, r4, lsr r1
87801e70:	01340134 	teqeq	r4, r4, lsr r1
87801e74:	01340134 	teqeq	r4, r4, lsr r1
87801e78:	01340134 	teqeq	r4, r4, lsr r1
87801e7c:	01340134 	teqeq	r4, r4, lsr r1
87801e80:	01340134 	teqeq	r4, r4, lsr r1
87801e84:	01340134 	teqeq	r4, r4, lsr r1
87801e88:	01340134 	teqeq	r4, r4, lsr r1
87801e8c:	01340134 	teqeq	r4, r4, lsr r1
87801e90:	00700134 	rsbseq	r0, r0, r4, lsr r1
87801e94:	01340134 	teqeq	r4, r4, lsr r1
87801e98:	01340134 	teqeq	r4, r4, lsr r1
87801e9c:	01340134 	teqeq	r4, r4, lsr r1
87801ea0:	01340134 	teqeq	r4, r4, lsr r1
87801ea4:	01340134 	teqeq	r4, r4, lsr r1
87801ea8:	00b500bb 	ldrhteq	r0, [r5], fp
87801eac:	01340134 	teqeq	r4, r4, lsr r1
87801eb0:	01340134 	teqeq	r4, r4, lsr r1
87801eb4:	013400b5 	ldrheq	r0, [r4, -r5]!
87801eb8:	01340134 	teqeq	r4, r4, lsr r1
87801ebc:	01740134 	cmneq	r4, r4, lsr r1
87801ec0:	009900b1 	ldrheq	r0, [r9], r1
87801ec4:	01340134 	teqeq	r4, r4, lsr r1
87801ec8:	013400ef 	teqeq	r4, pc, ror #1
87801ecc:	0134014f 	teqeq	r4, pc, asr #2
87801ed0:	00720134 	rsbseq	r0, r2, r4, lsr r1
87801ed4:	2200      	movs	r2, #0
87801ed6:	701a      	strb	r2, [r3, #0]
87801ed8:	b009      	add	sp, #36	; 0x24
87801eda:	e8bd 8ff0 	ldmia.w	sp!, {r4, r5, r6, r7, r8, r9, sl, fp, pc}
87801ede:	9505      	str	r5, [sp, #20]
87801ee0:	f1c5 0b00 	rsb	fp, r5, #0
87801ee4:	462b      	mov	r3, r5
87801ee6:	2800      	cmp	r0, #0
87801ee8:	d0f4      	beq.n	87801ed4 <vsnprintf+0x3a8>
87801eea:	f04f 38ff 	mov.w	r8, #4294967295	; 0xffffffff
87801eee:	e633      	b.n	87801b58 <vsnprintf+0x2c>
87801ef0:	2b2a      	cmp	r3, #42	; 0x2a
87801ef2:	bf09      	itett	eq
87801ef4:	f8da 1000 	ldreq.w	r1, [sl]
87801ef8:	4622      	movne	r2, r4
87801efa:	7893      	ldrbeq	r3, [r2, #2]
87801efc:	f10a 0a04 	addeq.w	sl, sl, #4
87801f00:	bf04      	itt	eq
87801f02:	3202      	addeq	r2, #2
87801f04:	ea21 71e1 	biceq.w	r1, r1, r1, asr #31
87801f08:	e67b      	b.n	87801c02 <vsnprintf+0xd6>
87801f0a:	4614      	mov	r4, r2
87801f0c:	f047 0740 	orr.w	r7, r7, #64	; 0x40
87801f10:	f04f 0e10 	mov.w	lr, #16
87801f14:	284c      	cmp	r0, #76	; 0x4c
87801f16:	d01c      	beq.n	87801f52 <vsnprintf+0x426>
87801f18:	286c      	cmp	r0, #108	; 0x6c
87801f1a:	f000 80d8 	beq.w	878020ce <vsnprintf+0x5a2>
87801f1e:	f020 0320 	bic.w	r3, r0, #32
87801f22:	2b5a      	cmp	r3, #90	; 0x5a
87801f24:	f040 80c5 	bne.w	878020b2 <vsnprintf+0x586>
87801f28:	f8da 2000 	ldr.w	r2, [sl]
87801f2c:	f10a 0a04 	add.w	sl, sl, #4
87801f30:	2300      	movs	r3, #0
87801f32:	9102      	str	r1, [sp, #8]
87801f34:	4628      	mov	r0, r5
87801f36:	9703      	str	r7, [sp, #12]
87801f38:	4641      	mov	r1, r8
87801f3a:	9601      	str	r6, [sp, #4]
87801f3c:	f8cd e000 	str.w	lr, [sp]
87801f40:	f7ff fa8e 	bl	87801460 <number>
87801f44:	4605      	mov	r5, r0
87801f46:	7860      	ldrb	r0, [r4, #1]
87801f48:	e615      	b.n	87801b76 <vsnprintf+0x4a>
87801f4a:	284c      	cmp	r0, #76	; 0x4c
87801f4c:	f04f 0e0a 	mov.w	lr, #10
87801f50:	d1e2      	bne.n	87801f18 <vsnprintf+0x3ec>
87801f52:	e9da 2300 	ldrd	r2, r3, [sl]
87801f56:	f10a 0a08 	add.w	sl, sl, #8
87801f5a:	e7ea      	b.n	87801f32 <vsnprintf+0x406>
87801f5c:	4614      	mov	r4, r2
87801f5e:	1c72      	adds	r2, r6, #1
87801f60:	f04f 0310 	mov.w	r3, #16
87801f64:	bf04      	itt	eq
87801f66:	f047 0701 	orreq.w	r7, r7, #1
87801f6a:	2608      	moveq	r6, #8
87801f6c:	f8da 2000 	ldr.w	r2, [sl]
87801f70:	4628      	mov	r0, r5
87801f72:	9102      	str	r1, [sp, #8]
87801f74:	4641      	mov	r1, r8
87801f76:	e88d 0048 	stmia.w	sp, {r3, r6}
87801f7a:	2300      	movs	r3, #0
87801f7c:	9703      	str	r7, [sp, #12]
87801f7e:	f10a 0a04 	add.w	sl, sl, #4
87801f82:	f7ff fa6d 	bl	87801460 <number>
87801f86:	4605      	mov	r5, r0
87801f88:	7860      	ldrb	r0, [r4, #1]
87801f8a:	e5f4      	b.n	87801b76 <vsnprintf+0x4a>
87801f8c:	4614      	mov	r4, r2
87801f8e:	f04f 0e08 	mov.w	lr, #8
87801f92:	e7bf      	b.n	87801f14 <vsnprintf+0x3e8>
87801f94:	4614      	mov	r4, r2
87801f96:	f047 0702 	orr.w	r7, r7, #2
87801f9a:	f04f 0e0a 	mov.w	lr, #10
87801f9e:	e7b9      	b.n	87801f14 <vsnprintf+0x3e8>
87801fa0:	4614      	mov	r4, r2
87801fa2:	06f9      	lsls	r1, r7, #27
87801fa4:	d40d      	bmi.n	87801fc2 <vsnprintf+0x496>
87801fa6:	3e01      	subs	r6, #1
87801fa8:	2e00      	cmp	r6, #0
87801faa:	dd0a      	ble.n	87801fc2 <vsnprintf+0x496>
87801fac:	19ab      	adds	r3, r5, r6
87801fae:	2220      	movs	r2, #32
87801fb0:	45a8      	cmp	r8, r5
87801fb2:	f105 0501 	add.w	r5, r5, #1
87801fb6:	bf28      	it	cs
87801fb8:	f805 2c01 	strbcs.w	r2, [r5, #-1]
87801fbc:	429d      	cmp	r5, r3
87801fbe:	d1f7      	bne.n	87801fb0 <vsnprintf+0x484>
87801fc0:	2600      	movs	r6, #0
87801fc2:	f8da 3000 	ldr.w	r3, [sl]
87801fc6:	4545      	cmp	r5, r8
87801fc8:	f105 0101 	add.w	r1, r5, #1
87801fcc:	f10a 0004 	add.w	r0, sl, #4
87801fd0:	bf98      	it	ls
87801fd2:	702b      	strbls	r3, [r5, #0]
87801fd4:	2e01      	cmp	r6, #1
87801fd6:	bfc2      	ittt	gt
87801fd8:	19ad      	addgt	r5, r5, r6
87801fda:	460b      	movgt	r3, r1
87801fdc:	2220      	movgt	r2, #32
87801fde:	f340 80b1 	ble.w	87802144 <vsnprintf+0x618>
87801fe2:	4598      	cmp	r8, r3
87801fe4:	f103 0301 	add.w	r3, r3, #1
87801fe8:	bf28      	it	cs
87801fea:	f803 2c01 	strbcs.w	r2, [r3, #-1]
87801fee:	42ab      	cmp	r3, r5
87801ff0:	d1f7      	bne.n	87801fe2 <vsnprintf+0x4b6>
87801ff2:	1e75      	subs	r5, r6, #1
87801ff4:	4682      	mov	sl, r0
87801ff6:	440d      	add	r5, r1
87801ff8:	7860      	ldrb	r0, [r4, #1]
87801ffa:	e5bc      	b.n	87801b76 <vsnprintf+0x4a>
87801ffc:	4614      	mov	r4, r2
87801ffe:	45a8      	cmp	r8, r5
87802000:	bf24      	itt	cs
87802002:	2325      	movcs	r3, #37	; 0x25
87802004:	702b      	strbcs	r3, [r5, #0]
87802006:	e5b4      	b.n	87801b72 <vsnprintf+0x46>
87802008:	4614      	mov	r4, r2
8780200a:	f8da 3000 	ldr.w	r3, [sl]
8780200e:	f10a 0a04 	add.w	sl, sl, #4
87802012:	9a06      	ldr	r2, [sp, #24]
87802014:	f5b3 6f80 	cmp.w	r3, #1024	; 0x400
87802018:	bf38      	it	cc
8780201a:	4613      	movcc	r3, r2
8780201c:	4618      	mov	r0, r3
8780201e:	9307      	str	r3, [sp, #28]
87802020:	f7ff f8b8 	bl	87801194 <strnlen>
87802024:	f017 0f10 	tst.w	r7, #16
87802028:	9b07      	ldr	r3, [sp, #28]
8780202a:	d111      	bne.n	87802050 <vsnprintf+0x524>
8780202c:	4286      	cmp	r6, r0
8780202e:	f106 37ff 	add.w	r7, r6, #4294967295	; 0xffffffff
87802032:	f340 808b 	ble.w	8780214c <vsnprintf+0x620>
87802036:	1a32      	subs	r2, r6, r0
87802038:	2120      	movs	r1, #32
8780203a:	442a      	add	r2, r5
8780203c:	45a8      	cmp	r8, r5
8780203e:	f105 0501 	add.w	r5, r5, #1
87802042:	bf28      	it	cs
87802044:	f805 1c01 	strbcs.w	r1, [r5, #-1]
87802048:	4295      	cmp	r5, r2
8780204a:	d1f7      	bne.n	8780203c <vsnprintf+0x510>
8780204c:	1bbe      	subs	r6, r7, r6
8780204e:	4406      	add	r6, r0
87802050:	2800      	cmp	r0, #0
87802052:	dd75      	ble.n	87802140 <vsnprintf+0x614>
87802054:	182a      	adds	r2, r5, r0
87802056:	45a8      	cmp	r8, r5
87802058:	f105 0501 	add.w	r5, r5, #1
8780205c:	bf28      	it	cs
8780205e:	7819      	ldrbcs	r1, [r3, #0]
87802060:	f103 0301 	add.w	r3, r3, #1
87802064:	bf28      	it	cs
87802066:	f805 1c01 	strbcs.w	r1, [r5, #-1]
8780206a:	4295      	cmp	r5, r2
8780206c:	d1f3      	bne.n	87802056 <vsnprintf+0x52a>
8780206e:	4286      	cmp	r6, r0
87802070:	bfdc      	itt	le
87802072:	4615      	movle	r5, r2
87802074:	7860      	ldrble	r0, [r4, #1]
87802076:	f77f ad7e 	ble.w	87801b76 <vsnprintf+0x4a>
8780207a:	1a30      	subs	r0, r6, r0
8780207c:	2320      	movs	r3, #32
8780207e:	1815      	adds	r5, r2, r0
87802080:	4590      	cmp	r8, r2
87802082:	f102 0201 	add.w	r2, r2, #1
87802086:	bf28      	it	cs
87802088:	f802 3c01 	strbcs.w	r3, [r2, #-1]
8780208c:	42aa      	cmp	r2, r5
8780208e:	d1f7      	bne.n	87802080 <vsnprintf+0x554>
87802090:	e759      	b.n	87801f46 <vsnprintf+0x41a>
87802092:	4614      	mov	r4, r2
87802094:	45a8      	cmp	r8, r5
87802096:	bf24      	itt	cs
87802098:	2325      	movcs	r3, #37	; 0x25
8780209a:	702b      	strbcs	r3, [r5, #0]
8780209c:	1c6b      	adds	r3, r5, #1
8780209e:	7822      	ldrb	r2, [r4, #0]
878020a0:	b36a      	cbz	r2, 878020fe <vsnprintf+0x5d2>
878020a2:	4543      	cmp	r3, r8
878020a4:	f105 0502 	add.w	r5, r5, #2
878020a8:	bf98      	it	ls
878020aa:	f805 2c01 	strbls.w	r2, [r5, #-1]
878020ae:	7860      	ldrb	r0, [r4, #1]
878020b0:	e561      	b.n	87801b76 <vsnprintf+0x4a>
878020b2:	2868      	cmp	r0, #104	; 0x68
878020b4:	f10a 0304 	add.w	r3, sl, #4
878020b8:	f8da 2000 	ldr.w	r2, [sl]
878020bc:	469a      	mov	sl, r3
878020be:	d036      	beq.n	8780212e <vsnprintf+0x602>
878020c0:	07bb      	lsls	r3, r7, #30
878020c2:	f57f af35 	bpl.w	87801f30 <vsnprintf+0x404>
878020c6:	17d3      	asrs	r3, r2, #31
878020c8:	e733      	b.n	87801f32 <vsnprintf+0x406>
878020ca:	f04f 0e0a 	mov.w	lr, #10
878020ce:	f10a 0304 	add.w	r3, sl, #4
878020d2:	f8da 2000 	ldr.w	r2, [sl]
878020d6:	469a      	mov	sl, r3
878020d8:	07bb      	lsls	r3, r7, #30
878020da:	f57f af29 	bpl.w	87801f30 <vsnprintf+0x404>
878020de:	17d3      	asrs	r3, r2, #31
878020e0:	e727      	b.n	87801f32 <vsnprintf+0x406>
878020e2:	4614      	mov	r4, r2
878020e4:	9a05      	ldr	r2, [sp, #20]
878020e6:	f10a 0a04 	add.w	sl, sl, #4
878020ea:	f85a 3c04 	ldr.w	r3, [sl, #-4]
878020ee:	1aaa      	subs	r2, r5, r2
878020f0:	601a      	str	r2, [r3, #0]
878020f2:	7860      	ldrb	r0, [r4, #1]
878020f4:	e53f      	b.n	87801b76 <vsnprintf+0x4a>
878020f6:	7893      	ldrb	r3, [r2, #2]
878020f8:	204c      	movs	r0, #76	; 0x4c
878020fa:	3202      	adds	r2, #2
878020fc:	e591      	b.n	87801c22 <vsnprintf+0xf6>
878020fe:	461d      	mov	r5, r3
87802100:	e67e      	b.n	87801e00 <vsnprintf+0x2d4>
87802102:	4614      	mov	r4, r2
87802104:	e704      	b.n	87801f10 <vsnprintf+0x3e4>
87802106:	284c      	cmp	r0, #76	; 0x4c
87802108:	4614      	mov	r4, r2
8780210a:	f04f 0e0a 	mov.w	lr, #10
8780210e:	f47f af06 	bne.w	87801f1e <vsnprintf+0x3f2>
87802112:	e71e      	b.n	87801f52 <vsnprintf+0x426>
87802114:	9905      	ldr	r1, [sp, #20]
87802116:	f10a 0a04 	add.w	sl, sl, #4
8780211a:	f85a 3c04 	ldr.w	r3, [sl, #-4]
8780211e:	1a69      	subs	r1, r5, r1
87802120:	6019      	str	r1, [r3, #0]
87802122:	7890      	ldrb	r0, [r2, #2]
87802124:	e527      	b.n	87801b76 <vsnprintf+0x4a>
87802126:	2000      	movs	r0, #0
87802128:	b009      	add	sp, #36	; 0x24
8780212a:	e8bd 8ff0 	ldmia.w	sp!, {r4, r5, r6, r7, r8, r9, sl, fp, pc}
8780212e:	07b8      	lsls	r0, r7, #30
87802130:	bf4d      	iteet	mi
87802132:	b212      	sxthmi	r2, r2
87802134:	b292      	uxthpl	r2, r2
87802136:	2300      	movpl	r3, #0
87802138:	17d3      	asrmi	r3, r2, #31
8780213a:	e6fa      	b.n	87801f32 <vsnprintf+0x406>
8780213c:	462b      	mov	r3, r5
8780213e:	e661      	b.n	87801e04 <vsnprintf+0x2d8>
87802140:	462a      	mov	r2, r5
87802142:	e794      	b.n	8780206e <vsnprintf+0x542>
87802144:	4682      	mov	sl, r0
87802146:	460d      	mov	r5, r1
87802148:	7860      	ldrb	r0, [r4, #1]
8780214a:	e514      	b.n	87801b76 <vsnprintf+0x4a>
8780214c:	463e      	mov	r6, r7
8780214e:	e77f      	b.n	87802050 <vsnprintf+0x524>

87802150 <vscnprintf>:
87802150:	b510      	push	{r4, lr}
87802152:	460c      	mov	r4, r1
87802154:	f7ff fcea 	bl	87801b2c <vsnprintf>
87802158:	4284      	cmp	r4, r0
8780215a:	bf98      	it	ls
8780215c:	f104 30ff 	addls.w	r0, r4, #4294967295	; 0xffffffff
87802160:	bd10      	pop	{r4, pc}
87802162:	bf00      	nop

87802164 <snprintf>:
87802164:	b40c      	push	{r2, r3}
87802166:	b508      	push	{r3, lr}
87802168:	ab03      	add	r3, sp, #12
8780216a:	9a02      	ldr	r2, [sp, #8]
8780216c:	f7ff fcde 	bl	87801b2c <vsnprintf>
87802170:	e8bd 4008 	ldmia.w	sp!, {r3, lr}
87802174:	b002      	add	sp, #8
87802176:	4770      	bx	lr

87802178 <scnprintf>:
87802178:	b40c      	push	{r2, r3}
8780217a:	b510      	push	{r4, lr}
8780217c:	460c      	mov	r4, r1
8780217e:	ab03      	add	r3, sp, #12
87802180:	9a02      	ldr	r2, [sp, #8]
87802182:	f7ff fcd3 	bl	87801b2c <vsnprintf>
87802186:	4284      	cmp	r4, r0
87802188:	bf98      	it	ls
8780218a:	f104 30ff 	addls.w	r0, r4, #4294967295	; 0xffffffff
8780218e:	e8bd 4010 	ldmia.w	sp!, {r4, lr}
87802192:	b002      	add	sp, #8
87802194:	4770      	bx	lr
87802196:	bf00      	nop

87802198 <vsprintf>:
87802198:	4613      	mov	r3, r2
8780219a:	460a      	mov	r2, r1
8780219c:	f06f 4100 	mvn.w	r1, #2147483648	; 0x80000000
878021a0:	f7ff bcc4 	b.w	87801b2c <vsnprintf>

878021a4 <sprintf>:
878021a4:	b40e      	push	{r1, r2, r3}
878021a6:	f06f 4100 	mvn.w	r1, #2147483648	; 0x80000000
878021aa:	b500      	push	{lr}
878021ac:	ab02      	add	r3, sp, #8
878021ae:	9a01      	ldr	r2, [sp, #4]
878021b0:	f7ff fcbc 	bl	87801b2c <vsnprintf>
878021b4:	f85d eb04 	ldr.w	lr, [sp], #4
878021b8:	b003      	add	sp, #12
878021ba:	4770      	bx	lr

878021bc <vsscanf>:
878021bc:	e92d 4ff0 	stmdb	sp!, {r4, r5, r6, r7, r8, r9, sl, fp, lr}
878021c0:	f642 4464 	movw	r4, #11364	; 0x2c64
878021c4:	780b      	ldrb	r3, [r1, #0]
878021c6:	f2c8 7480 	movt	r4, #34688	; 0x8780
878021ca:	b083      	sub	sp, #12
878021cc:	4607      	mov	r7, r0
878021ce:	460d      	mov	r5, r1
878021d0:	4696      	mov	lr, r2
878021d2:	46a0      	mov	r8, r4
878021d4:	2600      	movs	r6, #0
878021d6:	b143      	cbz	r3, 878021ea <vsscanf+0x2e>
878021d8:	7801      	ldrb	r1, [r0, #0]
878021da:	b131      	cbz	r1, 878021ea <vsscanf+0x2e>
878021dc:	5ce2      	ldrb	r2, [r4, r3]
878021de:	0692      	lsls	r2, r2, #26
878021e0:	d407      	bmi.n	878021f2 <vsscanf+0x36>
878021e2:	2b25      	cmp	r3, #37	; 0x25
878021e4:	d020      	beq.n	87802228 <vsscanf+0x6c>
878021e6:	428b      	cmp	r3, r1
878021e8:	d018      	beq.n	8780221c <vsscanf+0x60>
878021ea:	4630      	mov	r0, r6
878021ec:	b003      	add	sp, #12
878021ee:	e8bd 8ff0 	ldmia.w	sp!, {r4, r5, r6, r7, r8, r9, sl, fp, pc}
878021f2:	f815 3f01 	ldrb.w	r3, [r5, #1]!
878021f6:	5ce2      	ldrb	r2, [r4, r3]
878021f8:	0692      	lsls	r2, r2, #26
878021fa:	d4fa      	bmi.n	878021f2 <vsscanf+0x36>
878021fc:	f818 2001 	ldrb.w	r2, [r8, r1]
87802200:	0691      	lsls	r1, r2, #26
87802202:	d504      	bpl.n	8780220e <vsscanf+0x52>
87802204:	f810 2f01 	ldrb.w	r2, [r0, #1]!
87802208:	5ca2      	ldrb	r2, [r4, r2]
8780220a:	0692      	lsls	r2, r2, #26
8780220c:	d4fa      	bmi.n	87802204 <vsscanf+0x48>
8780220e:	2b00      	cmp	r3, #0
87802210:	bf18      	it	ne
87802212:	2b25      	cmpne	r3, #37	; 0x25
87802214:	d006      	beq.n	87802224 <vsscanf+0x68>
87802216:	7801      	ldrb	r1, [r0, #0]
87802218:	428b      	cmp	r3, r1
8780221a:	d1e6      	bne.n	878021ea <vsscanf+0x2e>
8780221c:	786b      	ldrb	r3, [r5, #1]
8780221e:	3001      	adds	r0, #1
87802220:	3501      	adds	r5, #1
87802222:	e7d8      	b.n	878021d6 <vsscanf+0x1a>
87802224:	2b00      	cmp	r3, #0
87802226:	d0e0      	beq.n	878021ea <vsscanf+0x2e>
87802228:	786b      	ldrb	r3, [r5, #1]
8780222a:	3501      	adds	r5, #1
8780222c:	2b2a      	cmp	r3, #42	; 0x2a
8780222e:	f000 80f1 	beq.w	87802414 <vsscanf+0x258>
87802232:	5ce2      	ldrb	r2, [r4, r3]
87802234:	4619      	mov	r1, r3
87802236:	0752      	lsls	r2, r2, #29
87802238:	bf5c      	itt	pl
8780223a:	4619      	movpl	r1, r3
8780223c:	f04f 33ff 	movpl.w	r3, #4294967295	; 0xffffffff
87802240:	d50a      	bpl.n	87802258 <vsscanf+0x9c>
87802242:	2300      	movs	r3, #0
87802244:	00da      	lsls	r2, r3, #3
87802246:	eb02 0343 	add.w	r3, r2, r3, lsl #1
8780224a:	440b      	add	r3, r1
8780224c:	f815 1f01 	ldrb.w	r1, [r5, #1]!
87802250:	3b30      	subs	r3, #48	; 0x30
87802252:	5c62      	ldrb	r2, [r4, r1]
87802254:	0752      	lsls	r2, r2, #29
87802256:	d4f5      	bmi.n	87802244 <vsscanf+0x88>
87802258:	f001 02df 	and.w	r2, r1, #223	; 0xdf
8780225c:	46a9      	mov	r9, r5
8780225e:	2a5a      	cmp	r2, #90	; 0x5a
87802260:	bf18      	it	ne
87802262:	2a4c      	cmpne	r2, #76	; 0x4c
87802264:	f04f 3cff 	mov.w	ip, #4294967295	; 0xffffffff
87802268:	bf0c      	ite	eq
8780226a:	2201      	moveq	r2, #1
8780226c:	2200      	movne	r2, #0
8780226e:	2968      	cmp	r1, #104	; 0x68
87802270:	bf08      	it	eq
87802272:	f042 0201 	orreq.w	r2, r2, #1
87802276:	2a00      	cmp	r2, #0
87802278:	f040 80b8 	bne.w	878023ec <vsscanf+0x230>
8780227c:	2900      	cmp	r1, #0
8780227e:	d0b4      	beq.n	878021ea <vsscanf+0x2e>
87802280:	f890 a000 	ldrb.w	sl, [r0]
87802284:	f1ba 0f00 	cmp.w	sl, #0
87802288:	d0af      	beq.n	878021ea <vsscanf+0x2e>
8780228a:	3925      	subs	r1, #37	; 0x25
8780228c:	f109 0501 	add.w	r5, r9, #1
87802290:	2953      	cmp	r1, #83	; 0x53
87802292:	d8aa      	bhi.n	878021ea <vsscanf+0x2e>
87802294:	a201      	add	r2, pc, #4	; (adr r2, 8780229c <vsscanf+0xe0>)
87802296:	f852 f021 	ldr.w	pc, [r2, r1, lsl #2]
8780229a:	bf00      	nop
8780229c:	87802519 	usada8hi	r0, r9, r5, r2
878022a0:	878021eb 	strhi	r2, [r0, fp, ror #3]
878022a4:	878021eb 	strhi	r2, [r0, fp, ror #3]
878022a8:	878021eb 	strhi	r2, [r0, fp, ror #3]
878022ac:	878021eb 	strhi	r2, [r0, fp, ror #3]
878022b0:	878021eb 	strhi	r2, [r0, fp, ror #3]
878022b4:	878021eb 	strhi	r2, [r0, fp, ror #3]
878022b8:	878021eb 	strhi	r2, [r0, fp, ror #3]
878022bc:	878021eb 	strhi	r2, [r0, fp, ror #3]
878022c0:	878021eb 	strhi	r2, [r0, fp, ror #3]
878022c4:	878021eb 	strhi	r2, [r0, fp, ror #3]
878022c8:	878021eb 	strhi	r2, [r0, fp, ror #3]
878022cc:	878021eb 	strhi	r2, [r0, fp, ror #3]
878022d0:	878021eb 	strhi	r2, [r0, fp, ror #3]
878022d4:	878021eb 	strhi	r2, [r0, fp, ror #3]
878022d8:	878021eb 	strhi	r2, [r0, fp, ror #3]
878022dc:	878021eb 	strhi	r2, [r0, fp, ror #3]
878022e0:	878021eb 	strhi	r2, [r0, fp, ror #3]
878022e4:	878021eb 	strhi	r2, [r0, fp, ror #3]
878022e8:	878021eb 	strhi	r2, [r0, fp, ror #3]
878022ec:	878021eb 	strhi	r2, [r0, fp, ror #3]
878022f0:	878021eb 	strhi	r2, [r0, fp, ror #3]
878022f4:	878021eb 	strhi	r2, [r0, fp, ror #3]
878022f8:	878021eb 	strhi	r2, [r0, fp, ror #3]
878022fc:	878021eb 	strhi	r2, [r0, fp, ror #3]
87802300:	878021eb 	strhi	r2, [r0, fp, ror #3]
87802304:	878021eb 	strhi	r2, [r0, fp, ror #3]
87802308:	878021eb 	strhi	r2, [r0, fp, ror #3]
8780230c:	878021eb 	strhi	r2, [r0, fp, ror #3]
87802310:	878021eb 	strhi	r2, [r0, fp, ror #3]
87802314:	878021eb 	strhi	r2, [r0, fp, ror #3]
87802318:	878021eb 	strhi	r2, [r0, fp, ror #3]
8780231c:	878021eb 	strhi	r2, [r0, fp, ror #3]
87802320:	878021eb 	strhi	r2, [r0, fp, ror #3]
87802324:	878021eb 	strhi	r2, [r0, fp, ror #3]
87802328:	878021eb 	strhi	r2, [r0, fp, ror #3]
8780232c:	878021eb 	strhi	r2, [r0, fp, ror #3]
87802330:	878021eb 	strhi	r2, [r0, fp, ror #3]
87802334:	878021eb 	strhi	r2, [r0, fp, ror #3]
87802338:	878021eb 	strhi	r2, [r0, fp, ror #3]
8780233c:	878021eb 	strhi	r2, [r0, fp, ror #3]
87802340:	878021eb 	strhi	r2, [r0, fp, ror #3]
87802344:	878021eb 	strhi	r2, [r0, fp, ror #3]
87802348:	878021eb 	strhi	r2, [r0, fp, ror #3]
8780234c:	878021eb 	strhi	r2, [r0, fp, ror #3]
87802350:	878021eb 	strhi	r2, [r0, fp, ror #3]
87802354:	878021eb 	strhi	r2, [r0, fp, ror #3]
87802358:	878021eb 	strhi	r2, [r0, fp, ror #3]
8780235c:	878021eb 	strhi	r2, [r0, fp, ror #3]
87802360:	878021eb 	strhi	r2, [r0, fp, ror #3]
87802364:	878021eb 	strhi	r2, [r0, fp, ror #3]
87802368:	87802529 	strhi	r2, [r0, r9, lsr #10]
8780236c:	878021eb 	strhi	r2, [r0, fp, ror #3]
87802370:	878021eb 	strhi	r2, [r0, fp, ror #3]
87802374:	878021eb 	strhi	r2, [r0, fp, ror #3]
87802378:	878021eb 	strhi	r2, [r0, fp, ror #3]
8780237c:	878021eb 	strhi	r2, [r0, fp, ror #3]
87802380:	878021eb 	strhi	r2, [r0, fp, ror #3]
87802384:	878021eb 	strhi	r2, [r0, fp, ror #3]
87802388:	878021eb 	strhi	r2, [r0, fp, ror #3]
8780238c:	878021eb 	strhi	r2, [r0, fp, ror #3]
87802390:	878021eb 	strhi	r2, [r0, fp, ror #3]
87802394:	878025f9 			; <UNDEFINED> instruction: 0x878025f9
87802398:	8780262b 	strhi	r2, [r0, fp, lsr #12]
8780239c:	878021eb 	strhi	r2, [r0, fp, ror #3]
878023a0:	878021eb 	strhi	r2, [r0, fp, ror #3]
878023a4:	878021eb 	strhi	r2, [r0, fp, ror #3]
878023a8:	878021eb 	strhi	r2, [r0, fp, ror #3]
878023ac:	8780244f 	strhi	r2, [r0, pc, asr #8]
878023b0:	878021eb 	strhi	r2, [r0, fp, ror #3]
878023b4:	878021eb 	strhi	r2, [r0, fp, ror #3]
878023b8:	878021eb 	strhi	r2, [r0, fp, ror #3]
878023bc:	878021eb 	strhi	r2, [r0, fp, ror #3]
878023c0:	878025e7 	strhi	r2, [r0, r7, ror #11]
878023c4:	8780255d 			; <UNDEFINED> instruction: 0x8780255d
878023c8:	878021eb 	strhi	r2, [r0, fp, ror #3]
878023cc:	878021eb 	strhi	r2, [r0, fp, ror #3]
878023d0:	878021eb 	strhi	r2, [r0, fp, ror #3]
878023d4:	8780258b 	strhi	r2, [r0, fp, lsl #11]
878023d8:	878021eb 	strhi	r2, [r0, fp, ror #3]
878023dc:	87802543 	strhi	r2, [r0, r3, asr #10]
878023e0:	878021eb 	strhi	r2, [r0, fp, ror #3]
878023e4:	878021eb 	strhi	r2, [r0, fp, ror #3]
878023e8:	87802529 	strhi	r2, [r0, r9, lsr #10]
878023ec:	786a      	ldrb	r2, [r5, #1]
878023ee:	468c      	mov	ip, r1
878023f0:	f105 0901 	add.w	r9, r5, #1
878023f4:	4291      	cmp	r1, r2
878023f6:	bf18      	it	ne
878023f8:	4611      	movne	r1, r2
878023fa:	f47f af3f 	bne.w	8780227c <vsscanf+0xc0>
878023fe:	2968      	cmp	r1, #104	; 0x68
87802400:	f000 8199 	beq.w	87802736 <vsscanf+0x57a>
87802404:	296c      	cmp	r1, #108	; 0x6c
87802406:	bf02      	ittt	eq
87802408:	f105 0902 	addeq.w	r9, r5, #2
8780240c:	78a9      	ldrbeq	r1, [r5, #2]
8780240e:	f04f 0c4c 	moveq.w	ip, #76	; 0x4c
87802412:	e733      	b.n	8780227c <vsscanf+0xc0>
87802414:	f894 202a 	ldrb.w	r2, [r4, #42]	; 0x2a
87802418:	0691      	lsls	r1, r2, #26
8780241a:	d40a      	bmi.n	87802432 <vsscanf+0x276>
8780241c:	f815 3f01 	ldrb.w	r3, [r5, #1]!
87802420:	5ce2      	ldrb	r2, [r4, r3]
87802422:	1c19      	adds	r1, r3, #0
87802424:	bf18      	it	ne
87802426:	2101      	movne	r1, #1
87802428:	f082 0220 	eor.w	r2, r2, #32
8780242c:	ea11 1252 	ands.w	r2, r1, r2, lsr #5
87802430:	d1f4      	bne.n	8780241c <vsscanf+0x260>
87802432:	7802      	ldrb	r2, [r0, #0]
87802434:	e001      	b.n	8780243a <vsscanf+0x27e>
87802436:	f810 2f01 	ldrb.w	r2, [r0, #1]!
8780243a:	5ca1      	ldrb	r1, [r4, r2]
8780243c:	3200      	adds	r2, #0
8780243e:	bf18      	it	ne
87802440:	2201      	movne	r2, #1
87802442:	f081 0120 	eor.w	r1, r1, #32
87802446:	ea12 1251 	ands.w	r2, r2, r1, lsr #5
8780244a:	d1f4      	bne.n	87802436 <vsscanf+0x27a>
8780244c:	e6c3      	b.n	878021d6 <vsscanf+0x1a>
8780244e:	2200      	movs	r2, #0
87802450:	f814 300a 	ldrb.w	r3, [r4, sl]
87802454:	0699      	lsls	r1, r3, #26
87802456:	bf44      	itt	mi
87802458:	2101      	movmi	r1, #1
8780245a:	468b      	movmi	fp, r1
8780245c:	f140 8171 	bpl.w	87802742 <vsscanf+0x586>
87802460:	f810 3f01 	ldrb.w	r3, [r0, #1]!
87802464:	f814 a003 	ldrb.w	sl, [r4, r3]
87802468:	f01a 0f20 	tst.w	sl, #32
8780246c:	d1f8      	bne.n	87802460 <vsscanf+0x2a4>
8780246e:	2b2d      	cmp	r3, #45	; 0x2d
87802470:	bf14      	ite	ne
87802472:	2100      	movne	r1, #0
87802474:	f001 0101 	andeq.w	r1, r1, #1
87802478:	469a      	mov	sl, r3
8780247a:	b109      	cbz	r1, 87802480 <vsscanf+0x2c4>
8780247c:	f890 a001 	ldrb.w	sl, [r0, #1]
87802480:	f1ba 0f00 	cmp.w	sl, #0
87802484:	f43f aeb1 	beq.w	878021ea <vsscanf+0x2e>
87802488:	2a10      	cmp	r2, #16
8780248a:	f000 8120 	beq.w	878026ce <vsscanf+0x512>
8780248e:	2a0a      	cmp	r2, #10
87802490:	d002      	beq.n	87802498 <vsscanf+0x2dc>
87802492:	2a08      	cmp	r2, #8
87802494:	d06b      	beq.n	8780256e <vsscanf+0x3b2>
87802496:	b922      	cbnz	r2, 878024a2 <vsscanf+0x2e6>
87802498:	f814 300a 	ldrb.w	r3, [r4, sl]
8780249c:	0759      	lsls	r1, r3, #29
8780249e:	f57f aea4 	bpl.w	878021ea <vsscanf+0x2e>
878024a2:	f1ac 0c48 	sub.w	ip, ip, #72	; 0x48
878024a6:	f1bc 0f32 	cmp.w	ip, #50	; 0x32
878024aa:	f200 810a 	bhi.w	878026c2 <vsscanf+0x506>
878024ae:	e8df f01c 	tbh	[pc, ip, lsl #1]
878024b2:	010800ec 	smlatteq	r8, ip, r0, r0
878024b6:	01080108 	tsteq	r8, r8, lsl #2
878024ba:	010800fa 	strdeq	r0, [r8, -sl]
878024be:	01080108 	tsteq	r8, r8, lsl #2
878024c2:	01080108 	tsteq	r8, r8, lsl #2
878024c6:	01080108 	tsteq	r8, r8, lsl #2
878024ca:	01080108 	tsteq	r8, r8, lsl #2
878024ce:	01080108 	tsteq	r8, r8, lsl #2
878024d2:	01080108 	tsteq	r8, r8, lsl #2
878024d6:	010800da 	ldrdeq	r0, [r8, -sl]
878024da:	01080108 	tsteq	r8, r8, lsl #2
878024de:	01080108 	tsteq	r8, r8, lsl #2
878024e2:	01080108 	tsteq	r8, r8, lsl #2
878024e6:	01080108 	tsteq	r8, r8, lsl #2
878024ea:	01080108 	tsteq	r8, r8, lsl #2
878024ee:	01080108 	tsteq	r8, r8, lsl #2
878024f2:	010800cc 	smlabteq	r8, ip, r0, r0
878024f6:	01080108 	tsteq	r8, r8, lsl #2
878024fa:	010800be 	strheq	r0, [r8, -lr]
878024fe:	01080108 	tsteq	r8, r8, lsl #2
87802502:	01080108 	tsteq	r8, r8, lsl #2
87802506:	01080108 	tsteq	r8, r8, lsl #2
8780250a:	01080108 	tsteq	r8, r8, lsl #2
8780250e:	01080108 	tsteq	r8, r8, lsl #2
87802512:	01080108 	tsteq	r8, r8, lsl #2
87802516:	f1ba00da 			; <UNDEFINED> instruction: 0xf1ba00da
8780251a:	0f25      	lsrs	r5, r4, #28
8780251c:	f47f ae65 	bne.w	878021ea <vsscanf+0x2e>
87802520:	3001      	adds	r0, #1
87802522:	f899 3001 	ldrb.w	r3, [r9, #1]
87802526:	e656      	b.n	878021d6 <vsscanf+0x1a>
87802528:	f814 300a 	ldrb.w	r3, [r4, sl]
8780252c:	2210      	movs	r2, #16
8780252e:	f003 0320 	and.w	r3, r3, #32
87802532:	f003 0bff 	and.w	fp, r3, #255	; 0xff
87802536:	2b00      	cmp	r3, #0
87802538:	f000 80c9 	beq.w	878026ce <vsscanf+0x512>
8780253c:	2100      	movs	r1, #0
8780253e:	468b      	mov	fp, r1
87802540:	e78e      	b.n	87802460 <vsscanf+0x2a4>
87802542:	f814 300a 	ldrb.w	r3, [r4, sl]
87802546:	220a      	movs	r2, #10
87802548:	f003 0320 	and.w	r3, r3, #32
8780254c:	f003 0bff 	and.w	fp, r3, #255	; 0xff
87802550:	2b00      	cmp	r3, #0
87802552:	d0a1      	beq.n	87802498 <vsscanf+0x2dc>
87802554:	2100      	movs	r1, #0
87802556:	220a      	movs	r2, #10
87802558:	468b      	mov	fp, r1
8780255a:	e781      	b.n	87802460 <vsscanf+0x2a4>
8780255c:	f814 300a 	ldrb.w	r3, [r4, sl]
87802560:	2208      	movs	r2, #8
87802562:	f003 0320 	and.w	r3, r3, #32
87802566:	f003 0bff 	and.w	fp, r3, #255	; 0xff
8780256a:	2b00      	cmp	r3, #0
8780256c:	d1e6      	bne.n	8780253c <vsscanf+0x380>
8780256e:	f814 300a 	ldrb.w	r3, [r4, sl]
87802572:	f083 0304 	eor.w	r3, r3, #4
87802576:	f3c3 0380 	ubfx	r3, r3, #2, #1
8780257a:	f1ba 0f37 	cmp.w	sl, #55	; 0x37
8780257e:	bf88      	it	hi
87802580:	f043 0301 	orrhi.w	r3, r3, #1
87802584:	2b00      	cmp	r3, #0
87802586:	d08c      	beq.n	878024a2 <vsscanf+0x2e6>
87802588:	e62f      	b.n	878021ea <vsscanf+0x2e>
8780258a:	1c5a      	adds	r2, r3, #1
8780258c:	f10e 0c04 	add.w	ip, lr, #4
87802590:	f8de 1000 	ldr.w	r1, [lr]
87802594:	f000 80a2 	beq.w	878026dc <vsscanf+0x520>
87802598:	f814 200a 	ldrb.w	r2, [r4, sl]
8780259c:	0692      	lsls	r2, r2, #26
8780259e:	bf58      	it	pl
878025a0:	4652      	movpl	r2, sl
878025a2:	d507      	bpl.n	878025b4 <vsscanf+0x3f8>
878025a4:	f810 af01 	ldrb.w	sl, [r0, #1]!
878025a8:	f814 200a 	ldrb.w	r2, [r4, sl]
878025ac:	0692      	lsls	r2, r2, #26
878025ae:	d4f9      	bmi.n	878025a4 <vsscanf+0x3e8>
878025b0:	4652      	mov	r2, sl
878025b2:	b18a      	cbz	r2, 878025d8 <vsscanf+0x41c>
878025b4:	b183      	cbz	r3, 878025d8 <vsscanf+0x41c>
878025b6:	f100 0e01 	add.w	lr, r0, #1
878025ba:	e006      	b.n	878025ca <vsscanf+0x40e>
878025bc:	f814 a002 	ldrb.w	sl, [r4, r2]
878025c0:	f01a 0f20 	tst.w	sl, #32
878025c4:	d108      	bne.n	878025d8 <vsscanf+0x41c>
878025c6:	3b01      	subs	r3, #1
878025c8:	d006      	beq.n	878025d8 <vsscanf+0x41c>
878025ca:	f801 2b01 	strb.w	r2, [r1], #1
878025ce:	4670      	mov	r0, lr
878025d0:	f81e 2b01 	ldrb.w	r2, [lr], #1
878025d4:	2a00      	cmp	r2, #0
878025d6:	d1f1      	bne.n	878025bc <vsscanf+0x400>
878025d8:	2300      	movs	r3, #0
878025da:	3601      	adds	r6, #1
878025dc:	700b      	strb	r3, [r1, #0]
878025de:	46e6      	mov	lr, ip
878025e0:	f899 3001 	ldrb.w	r3, [r9, #1]
878025e4:	e5f7      	b.n	878021d6 <vsscanf+0x1a>
878025e6:	f8de 3000 	ldr.w	r3, [lr]
878025ea:	1bc2      	subs	r2, r0, r7
878025ec:	f10e 0e04 	add.w	lr, lr, #4
878025f0:	601a      	str	r2, [r3, #0]
878025f2:	f899 3001 	ldrb.w	r3, [r9, #1]
878025f6:	e5ee      	b.n	878021d6 <vsscanf+0x1a>
878025f8:	f8de 1000 	ldr.w	r1, [lr]
878025fc:	1c5a      	adds	r2, r3, #1
878025fe:	bf08      	it	eq
87802600:	2301      	moveq	r3, #1
87802602:	1c42      	adds	r2, r0, #1
87802604:	f10e 0e04 	add.w	lr, lr, #4
87802608:	f101 3cff 	add.w	ip, r1, #4294967295	; 0xffffffff
8780260c:	e003      	b.n	87802616 <vsscanf+0x45a>
8780260e:	f812 1b01 	ldrb.w	r1, [r2], #1
87802612:	468a      	mov	sl, r1
87802614:	b129      	cbz	r1, 87802622 <vsscanf+0x466>
87802616:	3b01      	subs	r3, #1
87802618:	f80c af01 	strb.w	sl, [ip, #1]!
8780261c:	2b00      	cmp	r3, #0
8780261e:	4610      	mov	r0, r2
87802620:	dcf5      	bgt.n	8780260e <vsscanf+0x452>
87802622:	3601      	adds	r6, #1
87802624:	f899 3001 	ldrb.w	r3, [r9, #1]
87802628:	e5d5      	b.n	878021d6 <vsscanf+0x1a>
8780262a:	220a      	movs	r2, #10
8780262c:	e710      	b.n	87802450 <vsscanf+0x294>
8780262e:	f8de a000 	ldr.w	sl, [lr]
87802632:	f1bb 0f00 	cmp.w	fp, #0
87802636:	d018      	beq.n	8780266a <vsscanf+0x4ae>
87802638:	f10e 0b04 	add.w	fp, lr, #4
8780263c:	a901      	add	r1, sp, #4
8780263e:	f7ff f9b3 	bl	878019a8 <simple_strtol>
87802642:	46de      	mov	lr, fp
87802644:	f8ca 0000 	str.w	r0, [sl]
87802648:	e017      	b.n	8780267a <vsscanf+0x4be>
8780264a:	f8de a000 	ldr.w	sl, [lr]
8780264e:	f1bb 0f00 	cmp.w	fp, #0
87802652:	d05c      	beq.n	8780270e <vsscanf+0x552>
87802654:	f10e 0b04 	add.w	fp, lr, #4
87802658:	a901      	add	r1, sp, #4
8780265a:	f7ff f9a5 	bl	878019a8 <simple_strtol>
8780265e:	46de      	mov	lr, fp
87802660:	f8aa 0000 	strh.w	r0, [sl]
87802664:	e009      	b.n	8780267a <vsscanf+0x4be>
87802666:	f8de a000 	ldr.w	sl, [lr]
8780266a:	f10e 0b04 	add.w	fp, lr, #4
8780266e:	a901      	add	r1, sp, #4
87802670:	f7ff f914 	bl	8780189c <simple_strtoul>
87802674:	46de      	mov	lr, fp
87802676:	f8ca 0000 	str.w	r0, [sl]
8780267a:	9801      	ldr	r0, [sp, #4]
8780267c:	3601      	adds	r6, #1
8780267e:	2800      	cmp	r0, #0
87802680:	f43f adb3 	beq.w	878021ea <vsscanf+0x2e>
87802684:	f899 3001 	ldrb.w	r3, [r9, #1]
87802688:	e5a5      	b.n	878021d6 <vsscanf+0x1a>
8780268a:	f8de a000 	ldr.w	sl, [lr]
8780268e:	f1bb 0f00 	cmp.w	fp, #0
87802692:	d033      	beq.n	878026fc <vsscanf+0x540>
87802694:	f10e 0b04 	add.w	fp, lr, #4
87802698:	a901      	add	r1, sp, #4
8780269a:	f7ff f985 	bl	878019a8 <simple_strtol>
8780269e:	46de      	mov	lr, fp
878026a0:	f88a 0000 	strb.w	r0, [sl]
878026a4:	e7e9      	b.n	8780267a <vsscanf+0x4be>
878026a6:	f8de a000 	ldr.w	sl, [lr]
878026aa:	f1bb 0f00 	cmp.w	fp, #0
878026ae:	d01c      	beq.n	878026ea <vsscanf+0x52e>
878026b0:	f10e 0b04 	add.w	fp, lr, #4
878026b4:	a901      	add	r1, sp, #4
878026b6:	f7ff fa29 	bl	87801b0c <simple_strtoll>
878026ba:	46de      	mov	lr, fp
878026bc:	e9ca 0100 	strd	r0, r1, [sl]
878026c0:	e7db      	b.n	8780267a <vsscanf+0x4be>
878026c2:	f1bb 0f00 	cmp.w	fp, #0
878026c6:	d02b      	beq.n	87802720 <vsscanf+0x564>
878026c8:	f8de a000 	ldr.w	sl, [lr]
878026cc:	e7b4      	b.n	87802638 <vsscanf+0x47c>
878026ce:	f814 300a 	ldrb.w	r3, [r4, sl]
878026d2:	f013 0f44 	tst.w	r3, #68	; 0x44
878026d6:	f47f aee4 	bne.w	878024a2 <vsscanf+0x2e6>
878026da:	e586      	b.n	878021ea <vsscanf+0x2e>
878026dc:	f814 300a 	ldrb.w	r3, [r4, sl]
878026e0:	069b      	lsls	r3, r3, #26
878026e2:	d535      	bpl.n	87802750 <vsscanf+0x594>
878026e4:	f06f 4300 	mvn.w	r3, #2147483648	; 0x80000000
878026e8:	e75c      	b.n	878025a4 <vsscanf+0x3e8>
878026ea:	f10e 0b04 	add.w	fp, lr, #4
878026ee:	a901      	add	r1, sp, #4
878026f0:	f7ff f968 	bl	878019c4 <simple_strtoull>
878026f4:	46de      	mov	lr, fp
878026f6:	e9ca 0100 	strd	r0, r1, [sl]
878026fa:	e7be      	b.n	8780267a <vsscanf+0x4be>
878026fc:	f10e 0b04 	add.w	fp, lr, #4
87802700:	a901      	add	r1, sp, #4
87802702:	f7ff f8cb 	bl	8780189c <simple_strtoul>
87802706:	46de      	mov	lr, fp
87802708:	f88a 0000 	strb.w	r0, [sl]
8780270c:	e7b5      	b.n	8780267a <vsscanf+0x4be>
8780270e:	f10e 0b04 	add.w	fp, lr, #4
87802712:	a901      	add	r1, sp, #4
87802714:	f7ff f8c2 	bl	8780189c <simple_strtoul>
87802718:	46de      	mov	lr, fp
8780271a:	f8aa 0000 	strh.w	r0, [sl]
8780271e:	e7ac      	b.n	8780267a <vsscanf+0x4be>
87802720:	f8de a000 	ldr.w	sl, [lr]
87802724:	f10e 0b04 	add.w	fp, lr, #4
87802728:	a901      	add	r1, sp, #4
8780272a:	f7ff f8b7 	bl	8780189c <simple_strtoul>
8780272e:	46de      	mov	lr, fp
87802730:	f8ca 0000 	str.w	r0, [sl]
87802734:	e7a1      	b.n	8780267a <vsscanf+0x4be>
87802736:	f105 0902 	add.w	r9, r5, #2
8780273a:	78a9      	ldrb	r1, [r5, #2]
8780273c:	f04f 0c48 	mov.w	ip, #72	; 0x48
87802740:	e59c      	b.n	8780227c <vsscanf+0xc0>
87802742:	f1ba 0f2d 	cmp.w	sl, #45	; 0x2d
87802746:	f04f 0b01 	mov.w	fp, #1
8780274a:	f43f ae97 	beq.w	8780247c <vsscanf+0x2c0>
8780274e:	e69e      	b.n	8780248e <vsscanf+0x2d2>
87802750:	4652      	mov	r2, sl
87802752:	f06f 4300 	mvn.w	r3, #2147483648	; 0x80000000
87802756:	e72e      	b.n	878025b6 <vsscanf+0x3fa>

87802758 <sscanf>:
87802758:	b40e      	push	{r1, r2, r3}
8780275a:	b500      	push	{lr}
8780275c:	aa02      	add	r2, sp, #8
8780275e:	9901      	ldr	r1, [sp, #4]
87802760:	f7ff fd2c 	bl	878021bc <vsscanf>
87802764:	f85d eb04 	ldr.w	lr, [sp], #4
87802768:	b003      	add	sp, #12
8780276a:	4770      	bx	lr
8780276c:	0000      	movs	r0, r0
	...

87802770 <__udivsi3>:
87802770:	1e4a      	subs	r2, r1, #1
87802772:	bf08      	it	eq
87802774:	4770      	bxeq	lr
87802776:	f0c0 8124 	bcc.w	878029c2 <__udivsi3+0x252>
8780277a:	4288      	cmp	r0, r1
8780277c:	f240 8116 	bls.w	878029ac <__udivsi3+0x23c>
87802780:	4211      	tst	r1, r2
87802782:	f000 8117 	beq.w	878029b4 <__udivsi3+0x244>
87802786:	fab0 f380 	clz	r3, r0
8780278a:	fab1 f281 	clz	r2, r1
8780278e:	eba2 0303 	sub.w	r3, r2, r3
87802792:	f1c3 031f 	rsb	r3, r3, #31
87802796:	a204      	add	r2, pc, #16	; (adr r2, 878027a8 <__udivsi3+0x38>)
87802798:	eb02 1303 	add.w	r3, r2, r3, lsl #4
8780279c:	f04f 0200 	mov.w	r2, #0
878027a0:	469f      	mov	pc, r3
878027a2:	bf00      	nop
878027a4:	f3af 8000 	nop.w
878027a8:	ebb0 7fc1 	cmp.w	r0, r1, lsl #31
878027ac:	bf00      	nop
878027ae:	eb42 0202 	adc.w	r2, r2, r2
878027b2:	bf28      	it	cs
878027b4:	eba0 70c1 	subcs.w	r0, r0, r1, lsl #31
878027b8:	ebb0 7f81 	cmp.w	r0, r1, lsl #30
878027bc:	bf00      	nop
878027be:	eb42 0202 	adc.w	r2, r2, r2
878027c2:	bf28      	it	cs
878027c4:	eba0 7081 	subcs.w	r0, r0, r1, lsl #30
878027c8:	ebb0 7f41 	cmp.w	r0, r1, lsl #29
878027cc:	bf00      	nop
878027ce:	eb42 0202 	adc.w	r2, r2, r2
878027d2:	bf28      	it	cs
878027d4:	eba0 7041 	subcs.w	r0, r0, r1, lsl #29
878027d8:	ebb0 7f01 	cmp.w	r0, r1, lsl #28
878027dc:	bf00      	nop
878027de:	eb42 0202 	adc.w	r2, r2, r2
878027e2:	bf28      	it	cs
878027e4:	eba0 7001 	subcs.w	r0, r0, r1, lsl #28
878027e8:	ebb0 6fc1 	cmp.w	r0, r1, lsl #27
878027ec:	bf00      	nop
878027ee:	eb42 0202 	adc.w	r2, r2, r2
878027f2:	bf28      	it	cs
878027f4:	eba0 60c1 	subcs.w	r0, r0, r1, lsl #27
878027f8:	ebb0 6f81 	cmp.w	r0, r1, lsl #26
878027fc:	bf00      	nop
878027fe:	eb42 0202 	adc.w	r2, r2, r2
87802802:	bf28      	it	cs
87802804:	eba0 6081 	subcs.w	r0, r0, r1, lsl #26
87802808:	ebb0 6f41 	cmp.w	r0, r1, lsl #25
8780280c:	bf00      	nop
8780280e:	eb42 0202 	adc.w	r2, r2, r2
87802812:	bf28      	it	cs
87802814:	eba0 6041 	subcs.w	r0, r0, r1, lsl #25
87802818:	ebb0 6f01 	cmp.w	r0, r1, lsl #24
8780281c:	bf00      	nop
8780281e:	eb42 0202 	adc.w	r2, r2, r2
87802822:	bf28      	it	cs
87802824:	eba0 6001 	subcs.w	r0, r0, r1, lsl #24
87802828:	ebb0 5fc1 	cmp.w	r0, r1, lsl #23
8780282c:	bf00      	nop
8780282e:	eb42 0202 	adc.w	r2, r2, r2
87802832:	bf28      	it	cs
87802834:	eba0 50c1 	subcs.w	r0, r0, r1, lsl #23
87802838:	ebb0 5f81 	cmp.w	r0, r1, lsl #22
8780283c:	bf00      	nop
8780283e:	eb42 0202 	adc.w	r2, r2, r2
87802842:	bf28      	it	cs
87802844:	eba0 5081 	subcs.w	r0, r0, r1, lsl #22
87802848:	ebb0 5f41 	cmp.w	r0, r1, lsl #21
8780284c:	bf00      	nop
8780284e:	eb42 0202 	adc.w	r2, r2, r2
87802852:	bf28      	it	cs
87802854:	eba0 5041 	subcs.w	r0, r0, r1, lsl #21
87802858:	ebb0 5f01 	cmp.w	r0, r1, lsl #20
8780285c:	bf00      	nop
8780285e:	eb42 0202 	adc.w	r2, r2, r2
87802862:	bf28      	it	cs
87802864:	eba0 5001 	subcs.w	r0, r0, r1, lsl #20
87802868:	ebb0 4fc1 	cmp.w	r0, r1, lsl #19
8780286c:	bf00      	nop
8780286e:	eb42 0202 	adc.w	r2, r2, r2
87802872:	bf28      	it	cs
87802874:	eba0 40c1 	subcs.w	r0, r0, r1, lsl #19
87802878:	ebb0 4f81 	cmp.w	r0, r1, lsl #18
8780287c:	bf00      	nop
8780287e:	eb42 0202 	adc.w	r2, r2, r2
87802882:	bf28      	it	cs
87802884:	eba0 4081 	subcs.w	r0, r0, r1, lsl #18
87802888:	ebb0 4f41 	cmp.w	r0, r1, lsl #17
8780288c:	bf00      	nop
8780288e:	eb42 0202 	adc.w	r2, r2, r2
87802892:	bf28      	it	cs
87802894:	eba0 4041 	subcs.w	r0, r0, r1, lsl #17
87802898:	ebb0 4f01 	cmp.w	r0, r1, lsl #16
8780289c:	bf00      	nop
8780289e:	eb42 0202 	adc.w	r2, r2, r2
878028a2:	bf28      	it	cs
878028a4:	eba0 4001 	subcs.w	r0, r0, r1, lsl #16
878028a8:	ebb0 3fc1 	cmp.w	r0, r1, lsl #15
878028ac:	bf00      	nop
878028ae:	eb42 0202 	adc.w	r2, r2, r2
878028b2:	bf28      	it	cs
878028b4:	eba0 30c1 	subcs.w	r0, r0, r1, lsl #15
878028b8:	ebb0 3f81 	cmp.w	r0, r1, lsl #14
878028bc:	bf00      	nop
878028be:	eb42 0202 	adc.w	r2, r2, r2
878028c2:	bf28      	it	cs
878028c4:	eba0 3081 	subcs.w	r0, r0, r1, lsl #14
878028c8:	ebb0 3f41 	cmp.w	r0, r1, lsl #13
878028cc:	bf00      	nop
878028ce:	eb42 0202 	adc.w	r2, r2, r2
878028d2:	bf28      	it	cs
878028d4:	eba0 3041 	subcs.w	r0, r0, r1, lsl #13
878028d8:	ebb0 3f01 	cmp.w	r0, r1, lsl #12
878028dc:	bf00      	nop
878028de:	eb42 0202 	adc.w	r2, r2, r2
878028e2:	bf28      	it	cs
878028e4:	eba0 3001 	subcs.w	r0, r0, r1, lsl #12
878028e8:	ebb0 2fc1 	cmp.w	r0, r1, lsl #11
878028ec:	bf00      	nop
878028ee:	eb42 0202 	adc.w	r2, r2, r2
878028f2:	bf28      	it	cs
878028f4:	eba0 20c1 	subcs.w	r0, r0, r1, lsl #11
878028f8:	ebb0 2f81 	cmp.w	r0, r1, lsl #10
878028fc:	bf00      	nop
878028fe:	eb42 0202 	adc.w	r2, r2, r2
87802902:	bf28      	it	cs
87802904:	eba0 2081 	subcs.w	r0, r0, r1, lsl #10
87802908:	ebb0 2f41 	cmp.w	r0, r1, lsl #9
8780290c:	bf00      	nop
8780290e:	eb42 0202 	adc.w	r2, r2, r2
87802912:	bf28      	it	cs
87802914:	eba0 2041 	subcs.w	r0, r0, r1, lsl #9
87802918:	ebb0 2f01 	cmp.w	r0, r1, lsl #8
8780291c:	bf00      	nop
8780291e:	eb42 0202 	adc.w	r2, r2, r2
87802922:	bf28      	it	cs
87802924:	eba0 2001 	subcs.w	r0, r0, r1, lsl #8
87802928:	ebb0 1fc1 	cmp.w	r0, r1, lsl #7
8780292c:	bf00      	nop
8780292e:	eb42 0202 	adc.w	r2, r2, r2
87802932:	bf28      	it	cs
87802934:	eba0 10c1 	subcs.w	r0, r0, r1, lsl #7
87802938:	ebb0 1f81 	cmp.w	r0, r1, lsl #6
8780293c:	bf00      	nop
8780293e:	eb42 0202 	adc.w	r2, r2, r2
87802942:	bf28      	it	cs
87802944:	eba0 1081 	subcs.w	r0, r0, r1, lsl #6
87802948:	ebb0 1f41 	cmp.w	r0, r1, lsl #5
8780294c:	bf00      	nop
8780294e:	eb42 0202 	adc.w	r2, r2, r2
87802952:	bf28      	it	cs
87802954:	eba0 1041 	subcs.w	r0, r0, r1, lsl #5
87802958:	ebb0 1f01 	cmp.w	r0, r1, lsl #4
8780295c:	bf00      	nop
8780295e:	eb42 0202 	adc.w	r2, r2, r2
87802962:	bf28      	it	cs
87802964:	eba0 1001 	subcs.w	r0, r0, r1, lsl #4
87802968:	ebb0 0fc1 	cmp.w	r0, r1, lsl #3
8780296c:	bf00      	nop
8780296e:	eb42 0202 	adc.w	r2, r2, r2
87802972:	bf28      	it	cs
87802974:	eba0 00c1 	subcs.w	r0, r0, r1, lsl #3
87802978:	ebb0 0f81 	cmp.w	r0, r1, lsl #2
8780297c:	bf00      	nop
8780297e:	eb42 0202 	adc.w	r2, r2, r2
87802982:	bf28      	it	cs
87802984:	eba0 0081 	subcs.w	r0, r0, r1, lsl #2
87802988:	ebb0 0f41 	cmp.w	r0, r1, lsl #1
8780298c:	bf00      	nop
8780298e:	eb42 0202 	adc.w	r2, r2, r2
87802992:	bf28      	it	cs
87802994:	eba0 0041 	subcs.w	r0, r0, r1, lsl #1
87802998:	ebb0 0f01 	cmp.w	r0, r1
8780299c:	bf00      	nop
8780299e:	eb42 0202 	adc.w	r2, r2, r2
878029a2:	bf28      	it	cs
878029a4:	eba0 0001 	subcs.w	r0, r0, r1
878029a8:	4610      	mov	r0, r2
878029aa:	4770      	bx	lr
878029ac:	bf0c      	ite	eq
878029ae:	2001      	moveq	r0, #1
878029b0:	2000      	movne	r0, #0
878029b2:	4770      	bx	lr
878029b4:	fab1 f281 	clz	r2, r1
878029b8:	f1c2 021f 	rsb	r2, r2, #31
878029bc:	fa20 f002 	lsr.w	r0, r0, r2
878029c0:	4770      	bx	lr
878029c2:	b108      	cbz	r0, 878029c8 <__udivsi3+0x258>
878029c4:	f04f 30ff 	mov.w	r0, #4294967295	; 0xffffffff
878029c8:	f000 b826 	b.w	87802a18 <__aeabi_idiv0>

878029cc <__aeabi_uidivmod>:
878029cc:	2900      	cmp	r1, #0
878029ce:	d0f8      	beq.n	878029c2 <__udivsi3+0x252>
878029d0:	e92d 4003 	stmdb	sp!, {r0, r1, lr}
878029d4:	f7ff fecc 	bl	87802770 <__udivsi3>
878029d8:	e8bd 4006 	ldmia.w	sp!, {r1, r2, lr}
878029dc:	fb02 f300 	mul.w	r3, r2, r0
878029e0:	eba1 0103 	sub.w	r1, r1, r3
878029e4:	4770      	bx	lr
878029e6:	bf00      	nop

878029e8 <__aeabi_uldivmod>:
878029e8:	b953      	cbnz	r3, 87802a00 <__aeabi_uldivmod+0x18>
878029ea:	b94a      	cbnz	r2, 87802a00 <__aeabi_uldivmod+0x18>
878029ec:	2900      	cmp	r1, #0
878029ee:	bf08      	it	eq
878029f0:	2800      	cmpeq	r0, #0
878029f2:	bf1c      	itt	ne
878029f4:	f04f 31ff 	movne.w	r1, #4294967295	; 0xffffffff
878029f8:	f04f 30ff 	movne.w	r0, #4294967295	; 0xffffffff
878029fc:	f000 b80c 	b.w	87802a18 <__aeabi_idiv0>
87802a00:	f1ad 0c08 	sub.w	ip, sp, #8
87802a04:	e96d ce04 	strd	ip, lr, [sp, #-16]!
87802a08:	f000 f80c 	bl	87802a24 <__udivmoddi4>
87802a0c:	f8dd e004 	ldr.w	lr, [sp, #4]
87802a10:	e9dd 2302 	ldrd	r2, r3, [sp, #8]
87802a14:	b004      	add	sp, #16
87802a16:	4770      	bx	lr

87802a18 <__aeabi_idiv0>:
87802a18:	b502      	push	{r1, lr}
87802a1a:	f04f 0008 	mov.w	r0, #8
87802a1e:	f7fe fa17 	bl	87800e50 <raise>
87802a22:	bd02      	pop	{r1, pc}

87802a24 <__udivmoddi4>:
87802a24:	e92d 43f0 	stmdb	sp!, {r4, r5, r6, r7, r8, r9, lr}
87802a28:	460d      	mov	r5, r1
87802a2a:	429d      	cmp	r5, r3
87802a2c:	4604      	mov	r4, r0
87802a2e:	4610      	mov	r0, r2
87802a30:	4619      	mov	r1, r3
87802a32:	bf08      	it	eq
87802a34:	4284      	cmpeq	r4, r0
87802a36:	9a07      	ldr	r2, [sp, #28]
87802a38:	bf3c      	itt	cc
87802a3a:	2000      	movcc	r0, #0
87802a3c:	2100      	movcc	r1, #0
87802a3e:	d36a      	bcc.n	87802b16 <__udivmoddi4+0xf2>
87802a40:	fab1 f681 	clz	r6, r1
87802a44:	2900      	cmp	r1, #0
87802a46:	d06f      	beq.n	87802b28 <__udivmoddi4+0x104>
87802a48:	fab5 f385 	clz	r3, r5
87802a4c:	2d00      	cmp	r5, #0
87802a4e:	d067      	beq.n	87802b20 <__udivmoddi4+0xfc>
87802a50:	1af3      	subs	r3, r6, r3
87802a52:	f1a3 0c20 	sub.w	ip, r3, #32
87802a56:	fa01 f703 	lsl.w	r7, r1, r3
87802a5a:	fa00 fe0c 	lsl.w	lr, r0, ip
87802a5e:	f1c3 0820 	rsb	r8, r3, #32
87802a62:	fa20 f108 	lsr.w	r1, r0, r8
87802a66:	fa00 f603 	lsl.w	r6, r0, r3
87802a6a:	ea47 070e 	orr.w	r7, r7, lr
87802a6e:	469e      	mov	lr, r3
87802a70:	430f      	orrs	r7, r1
87802a72:	42bd      	cmp	r5, r7
87802a74:	bf08      	it	eq
87802a76:	42b4      	cmpeq	r4, r6
87802a78:	bf3c      	itt	cc
87802a7a:	2000      	movcc	r0, #0
87802a7c:	2100      	movcc	r1, #0
87802a7e:	d30c      	bcc.n	87802a9a <__udivmoddi4+0x76>
87802a80:	f04f 0901 	mov.w	r9, #1
87802a84:	1ba4      	subs	r4, r4, r6
87802a86:	fa29 f808 	lsr.w	r8, r9, r8
87802a8a:	fa09 f10c 	lsl.w	r1, r9, ip
87802a8e:	fa09 f003 	lsl.w	r0, r9, r3
87802a92:	ea41 0108 	orr.w	r1, r1, r8
87802a96:	eb65 0507 	sbc.w	r5, r5, r7
87802a9a:	2b00      	cmp	r3, #0
87802a9c:	d03b      	beq.n	87802b16 <__udivmoddi4+0xf2>
87802a9e:	087f      	lsrs	r7, r7, #1
87802aa0:	ea4f 0636 	mov.w	r6, r6, rrx
87802aa4:	e009      	b.n	87802aba <__udivmoddi4+0x96>
87802aa6:	1ba4      	subs	r4, r4, r6
87802aa8:	eb65 0507 	sbc.w	r5, r5, r7
87802aac:	1924      	adds	r4, r4, r4
87802aae:	416d      	adcs	r5, r5
87802ab0:	3401      	adds	r4, #1
87802ab2:	f145 0500 	adc.w	r5, r5, #0
87802ab6:	3b01      	subs	r3, #1
87802ab8:	d007      	beq.n	87802aca <__udivmoddi4+0xa6>
87802aba:	42bd      	cmp	r5, r7
87802abc:	bf08      	it	eq
87802abe:	42b4      	cmpeq	r4, r6
87802ac0:	d2f1      	bcs.n	87802aa6 <__udivmoddi4+0x82>
87802ac2:	1924      	adds	r4, r4, r4
87802ac4:	416d      	adcs	r5, r5
87802ac6:	3b01      	subs	r3, #1
87802ac8:	d1f7      	bne.n	87802aba <__udivmoddi4+0x96>
87802aca:	f1ce 0720 	rsb	r7, lr, #32
87802ace:	fa24 f60e 	lsr.w	r6, r4, lr
87802ad2:	fa05 f707 	lsl.w	r7, r5, r7
87802ad6:	f1ae 0320 	sub.w	r3, lr, #32
87802ada:	fa25 f303 	lsr.w	r3, r5, r3
87802ade:	fa25 fc0e 	lsr.w	ip, r5, lr
87802ae2:	1900      	adds	r0, r0, r4
87802ae4:	ea46 0607 	orr.w	r6, r6, r7
87802ae8:	ea46 0403 	orr.w	r4, r6, r3
87802aec:	4169      	adcs	r1, r5
87802aee:	4665      	mov	r5, ip
87802af0:	f1ae 0c20 	sub.w	ip, lr, #32
87802af4:	fa05 f70e 	lsl.w	r7, r5, lr
87802af8:	fa04 fc0c 	lsl.w	ip, r4, ip
87802afc:	fa04 f60e 	lsl.w	r6, r4, lr
87802b00:	f1ce 0320 	rsb	r3, lr, #32
87802b04:	fa24 f303 	lsr.w	r3, r4, r3
87802b08:	ea47 070c 	orr.w	r7, r7, ip
87802b0c:	1b80      	subs	r0, r0, r6
87802b0e:	ea47 0703 	orr.w	r7, r7, r3
87802b12:	eb61 0107 	sbc.w	r1, r1, r7
87802b16:	b10a      	cbz	r2, 87802b1c <__udivmoddi4+0xf8>
87802b18:	e9c2 4500 	strd	r4, r5, [r2]
87802b1c:	e8bd 83f0 	ldmia.w	sp!, {r4, r5, r6, r7, r8, r9, pc}
87802b20:	fab4 f384 	clz	r3, r4
87802b24:	3320      	adds	r3, #32
87802b26:	e793      	b.n	87802a50 <__udivmoddi4+0x2c>
87802b28:	fab0 f380 	clz	r3, r0
87802b2c:	f103 0620 	add.w	r6, r3, #32
87802b30:	fab5 f385 	clz	r3, r5
87802b34:	2d00      	cmp	r5, #0
87802b36:	d18b      	bne.n	87802a50 <__udivmoddi4+0x2c>
87802b38:	e7f2      	b.n	87802b20 <__udivmoddi4+0xfc>
87802b3a:	bf00      	nop
87802b3c:	0000      	movs	r0, r0
	...

87802b40 <__main_from_arm>:
87802b40:	e51ff004 	ldr	pc, [pc, #-4]	; 87802b44 <__main_from_arm+0x4>
87802b44:	87802b49 	strhi	r2, [r0, r9, asr #22]

Disassembly of section .text.startup:

87802b48 <main>:
87802b48:	b500      	push	{lr}
87802b4a:	2300      	movs	r3, #0
87802b4c:	b083      	sub	sp, #12
87802b4e:	9300      	str	r3, [sp, #0]
87802b50:	9301      	str	r3, [sp, #4]
87802b52:	f7fd fe49 	bl	878007e8 <int_init>
87802b56:	f7fd fbe3 	bl	87800320 <imx6u_clkinit>
87802b5a:	f7fd fc71 	bl	87800440 <delay_init>
87802b5e:	f7fd fbcf 	bl	87800300 <clk_enable>
87802b62:	f7fd fc3b 	bl	878003dc <led_init>
87802b66:	f7fd fcdd 	bl	87800524 <beep_init>
87802b6a:	f7fd ffaf 	bl	87800acc <uart_init>
87802b6e:	f642 30d0 	movw	r0, #11216	; 0x2bd0
87802b72:	f2c8 7080 	movt	r0, #34688	; 0x8780
87802b76:	f7fe f98f 	bl	87800e98 <printf>
87802b7a:	f642 30ec 	movw	r0, #11244	; 0x2bec
87802b7e:	4669      	mov	r1, sp
87802b80:	f2c8 7080 	movt	r0, #34688	; 0x8780
87802b84:	f7fe f9ac 	bl	87800ee0 <scanf>
87802b88:	f642 30f0 	movw	r0, #11248	; 0x2bf0
87802b8c:	f2c8 7080 	movt	r0, #34688	; 0x8780
87802b90:	f7fe f982 	bl	87800e98 <printf>
87802b94:	f642 30f4 	movw	r0, #11252	; 0x2bf4
87802b98:	f2c8 7080 	movt	r0, #34688	; 0x8780
87802b9c:	f7fe f97c 	bl	87800e98 <printf>
87802ba0:	f642 30ec 	movw	r0, #11244	; 0x2bec
87802ba4:	a901      	add	r1, sp, #4
87802ba6:	f2c8 7080 	movt	r0, #34688	; 0x8780
87802baa:	f7fe f999 	bl	87800ee0 <scanf>
87802bae:	f642 30f0 	movw	r0, #11248	; 0x2bf0
87802bb2:	f2c8 7080 	movt	r0, #34688	; 0x8780
87802bb6:	f7fe f96f 	bl	87800e98 <printf>
87802bba:	9b00      	ldr	r3, [sp, #0]
87802bbc:	f642 4010 	movw	r0, #11280	; 0x2c10
87802bc0:	9a01      	ldr	r2, [sp, #4]
87802bc2:	f2c8 7080 	movt	r0, #34688	; 0x8780
87802bc6:	4619      	mov	r1, r3
87802bc8:	4413      	add	r3, r2
87802bca:	f7fe f965 	bl	87800e98 <printf>
87802bce:	e7ce      	b.n	87802b6e <main+0x26>

Disassembly of section .rodata:

87802bd0 <CSWTCH.9-0x58>:
87802bd0:	61656c70 	smcvs	22208	; 0x56c0
87802bd4:	70206573 	eorvc	r6, r0, r3, ror r5
87802bd8:	74207475 	strtvc	r7, [r0], #-1141	; 0xfffffb8b
87802bdc:	66206568 	strtvs	r6, [r0], -r8, ror #10
87802be0:	74737269 	ldrbtvc	r7, [r3], #-617	; 0xfffffd97
87802be4:	6d756e20 	ldclvs	14, cr6, [r5, #-128]!	; 0xffffff80
87802be8:	00000000 	andeq	r0, r0, r0
87802bec:	00006425 	andeq	r6, r0, r5, lsr #8
87802bf0:	0000000a 	andeq	r0, r0, sl
87802bf4:	61656c70 	smcvs	22208	; 0x56c0
87802bf8:	70206573 	eorvc	r6, r0, r3, ror r5
87802bfc:	74207475 	strtvc	r7, [r0], #-1141	; 0xfffffb8b
87802c00:	73206568 			; <UNDEFINED> instruction: 0x73206568
87802c04:	6e6f6365 	cdpvs	3, 6, cr6, cr15, cr5, {3}
87802c08:	756e2064 	strbvc	r2, [lr, #-100]!	; 0xffffff9c
87802c0c:	0000006d 	andeq	r0, r0, sp, rrx
87802c10:	316d756e 	cmncc	sp, lr, ror #10
87802c14:	2b64253d 	blcs	8910c110 <__bss_end+0x190869c>
87802c18:	326d756e 	rsbcc	r7, sp, #461373440	; 0x1b800000
87802c1c:	2064253d 	rsbcs	r2, r4, sp, lsr r5
87802c20:	25203d3d 	strcs	r3, [r0, #-3389]!	; 0xfffff2c3
87802c24:	00000064 	andeq	r0, r0, r4, rrx

87802c28 <CSWTCH.9>:
87802c28:	00000004 	andeq	r0, r0, r4
87802c2c:	00000003 	andeq	r0, r0, r3
87802c30:	00000002 	andeq	r0, r0, r2
87802c34:	00000001 	andeq	r0, r0, r1
87802c38:	00000000 	andeq	r0, r0, r0
87802c3c:	00000006 	andeq	r0, r0, r6

87802c40 <digits.7613>:
87802c40:	33323130 	teqcc	r2, #48, 2
87802c44:	37363534 			; <UNDEFINED> instruction: 0x37363534
87802c48:	42413938 	submi	r3, r1, #56, 18	; 0xe0000
87802c4c:	46454443 	strbmi	r4, [r5], -r3, asr #8
87802c50:	4c554e3c 	mrrcmi	14, 3, r4, r5, cr12
87802c54:	00003e4c 	andeq	r3, r0, ip, asr #28

Disassembly of section .ARM.exidx:

87802c58 <.ARM.exidx>:
87802c58:	7ffffdcc 	svcvc	0x00fffdcc
87802c5c:	00000001 	andeq	r0, r0, r1

Disassembly of section .data:

87802c60 <release.7462>:
87802c60:	00000001 	andeq	r0, r0, r1

87802c64 <_ctype>:
87802c64:	08080808 	stmdaeq	r8, {r3, fp}
87802c68:	08080808 	stmdaeq	r8, {r3, fp}
87802c6c:	28282808 	stmdacs	r8!, {r3, fp, sp}
87802c70:	08082828 	stmdaeq	r8, {r3, r5, fp, sp}
87802c74:	08080808 	stmdaeq	r8, {r3, fp}
87802c78:	08080808 	stmdaeq	r8, {r3, fp}
87802c7c:	08080808 	stmdaeq	r8, {r3, fp}
87802c80:	08080808 	stmdaeq	r8, {r3, fp}
87802c84:	101010a0 	andsne	r1, r0, r0, lsr #1
87802c88:	10101010 	andsne	r1, r0, r0, lsl r0
87802c8c:	10101010 	andsne	r1, r0, r0, lsl r0
87802c90:	10101010 	andsne	r1, r0, r0, lsl r0
87802c94:	04040404 	streq	r0, [r4], #-1028	; 0xfffffbfc
87802c98:	04040404 	streq	r0, [r4], #-1028	; 0xfffffbfc
87802c9c:	10100404 	andsne	r0, r0, r4, lsl #8
87802ca0:	10101010 	andsne	r1, r0, r0, lsl r0
87802ca4:	41414110 	cmpmi	r1, r0, lsl r1
87802ca8:	01414141 	cmpeq	r1, r1, asr #2
87802cac:	01010101 	tsteq	r1, r1, lsl #2
87802cb0:	01010101 	tsteq	r1, r1, lsl #2
87802cb4:	01010101 	tsteq	r1, r1, lsl #2
87802cb8:	01010101 	tsteq	r1, r1, lsl #2
87802cbc:	10010101 	andne	r0, r1, r1, lsl #2
87802cc0:	10101010 	andsne	r1, r0, r0, lsl r0
87802cc4:	42424210 	submi	r4, r2, #16, 4
87802cc8:	02424242 	subeq	r4, r2, #536870916	; 0x20000004
87802ccc:	02020202 	andeq	r0, r2, #536870912	; 0x20000000
87802cd0:	02020202 	andeq	r0, r2, #536870912	; 0x20000000
87802cd4:	02020202 	andeq	r0, r2, #536870912	; 0x20000000
87802cd8:	02020202 	andeq	r0, r2, #536870912	; 0x20000000
87802cdc:	10020202 	andne	r0, r2, r2, lsl #4
87802ce0:	08101010 	ldmdaeq	r0, {r4, ip}
	...
87802d04:	101010a0 	andsne	r1, r0, r0, lsr #1
87802d08:	10101010 	andsne	r1, r0, r0, lsl r0
87802d0c:	10101010 	andsne	r1, r0, r0, lsl r0
87802d10:	10101010 	andsne	r1, r0, r0, lsl r0
87802d14:	10101010 	andsne	r1, r0, r0, lsl r0
87802d18:	10101010 	andsne	r1, r0, r0, lsl r0
87802d1c:	10101010 	andsne	r1, r0, r0, lsl r0
87802d20:	10101010 	andsne	r1, r0, r0, lsl r0
87802d24:	01010101 	tsteq	r1, r1, lsl #2
87802d28:	01010101 	tsteq	r1, r1, lsl #2
87802d2c:	01010101 	tsteq	r1, r1, lsl #2
87802d30:	01010101 	tsteq	r1, r1, lsl #2
87802d34:	01010101 	tsteq	r1, r1, lsl #2
87802d38:	10010101 	andne	r0, r1, r1, lsl #2
87802d3c:	01010101 	tsteq	r1, r1, lsl #2
87802d40:	02010101 	andeq	r0, r1, #1073741824	; 0x40000000
87802d44:	02020202 	andeq	r0, r2, #536870912	; 0x20000000
87802d48:	02020202 	andeq	r0, r2, #536870912	; 0x20000000
87802d4c:	02020202 	andeq	r0, r2, #536870912	; 0x20000000
87802d50:	02020202 	andeq	r0, r2, #536870912	; 0x20000000
87802d54:	02020202 	andeq	r0, r2, #536870912	; 0x20000000
87802d58:	10020202 	andne	r0, r2, r2, lsl #4
87802d5c:	02020202 	andeq	r0, r2, #536870912	; 0x20000000
87802d60:	02020202 	andeq	r0, r2, #536870912	; 0x20000000

Disassembly of section .bss:

87802d64 <state.7480>:
87802d64:	00000000 	andeq	r0, r0, r0

87802d68 <irqNesting>:
87802d68:	00000000 	andeq	r0, r0, r0

87802d6c <irqTable>:
	...

8780326c <state.7431>:
	...

8780326d <state.7496>:
8780326d:	 	andeq	r0, r0, r0

87803270 <g_pcOutBuf>:
	...

87803670 <g_pcInBuf>:
	...

87803a70 <___strtok>:
87803a70:	00000000 	andeq	r0, r0, r0

Disassembly of section .ARM.attributes:

00000000 <.ARM.attributes>:
   0:	00002e41 	andeq	r2, r0, r1, asr #28
   4:	61656100 	cmnvs	r5, r0, lsl #2
   8:	01006962 	tsteq	r0, r2, ror #18
   c:	00000024 	andeq	r0, r0, r4, lsr #32
  10:	412d3705 			; <UNDEFINED> instruction: 0x412d3705
  14:	070a0600 	streq	r0, [sl, -r0, lsl #12]
  18:	09010841 	stmdbeq	r1, {r0, r6, fp}
  1c:	12040a02 	andne	r0, r4, #8192	; 0x2000
  20:	15011404 	strne	r1, [r1, #-1028]	; 0xfffffbfc
  24:	18031701 	stmdane	r3, {r0, r8, r9, sl, ip}
  28:	1c021a01 			; <UNDEFINED> instruction: 0x1c021a01
  2c:	地址 0x000000000000002c 越界。


Disassembly of section .comment:

00000000 <.comment>:
   0:	3a434347 	bcc	10d0d24 <shift+0x10d0d24>
   4:	694c2820 	stmdbvs	ip, {r5, fp, sp}^
   8:	6f72616e 	svcvs	0x0072616e
   c:	43434720 	movtmi	r4, #14112	; 0x3720
  10:	392e3420 	stmdbcc	lr!, {r5, sl, ip, sp}
  14:	3130322d 	teqcc	r0, sp, lsr #4
  18:	31302e37 	teqcc	r0, r7, lsr lr
  1c:	2e342029 	cdpcs	0, 3, cr2, cr4, cr9, {1}
  20:	00342e39 	eorseq	r2, r4, r9, lsr lr

Disassembly of section .debug_frame:

00000000 <.debug_frame>:
   0:	0000000c 	andeq	r0, r0, ip
   4:	ffffffff 			; <UNDEFINED> instruction: 0xffffffff
   8:	7c010001 	stcvc	0, cr0, [r1], {1}
   c:	000d0c0e 	andeq	r0, sp, lr, lsl #24
  10:	0000000c 	andeq	r0, r0, ip
  14:	00000000 	andeq	r0, r0, r0
  18:	87802771 			; <UNDEFINED> instruction: 0x87802771
  1c:	0000025c 	andeq	r0, r0, ip, asr r2
  20:	0000000c 	andeq	r0, r0, ip
  24:	ffffffff 			; <UNDEFINED> instruction: 0xffffffff
  28:	7c020001 	stcvc	0, cr0, [r2], {1}
  2c:	000d0c0e 	andeq	r0, sp, lr, lsl #24
  30:	00000018 	andeq	r0, r0, r8, lsl r0
  34:	00000020 	andeq	r0, r0, r0, lsr #32
  38:	878029e8 	strhi	r2, [r0, r8, ror #19]
  3c:	00000030 	andeq	r0, r0, r0, lsr r0
  40:	8e100e50 	mrchi	14, 0, r0, cr0, cr0, {2}
  44:	0ece4703 	cdpeq	7, 12, cr4, cr14, cr3, {0}
  48:	00000010 	andeq	r0, r0, r0, lsl r0
  4c:	0000000c 	andeq	r0, r0, ip
  50:	ffffffff 			; <UNDEFINED> instruction: 0xffffffff
  54:	7c020001 	stcvc	0, cr0, [r2], {1}
  58:	000d0c0e 	andeq	r0, sp, lr, lsl #24
  5c:	00000020 	andeq	r0, r0, r0, lsr #32
  60:	0000004c 	andeq	r0, r0, ip, asr #32
  64:	87802a24 	strhi	r2, [r0, r4, lsr #20]
  68:	00000116 	andeq	r0, r0, r6, lsl r1
  6c:	841c0e42 	ldrhi	r0, [ip], #-3650	; 0xfffff1be
  70:	86068507 	strhi	r8, [r6], -r7, lsl #10
  74:	88048705 	stmdahi	r4, {r0, r2, r8, r9, sl, pc}
  78:	8e028903 	vmlahi.f16	s16, s4, s6	; <UNPREDICTABLE>
  7c:	00000001 	andeq	r0, r0, r1

Disassembly of section .debug_line:

00000000 <.debug_line>:
   0:	00000100 	andeq	r0, r0, r0, lsl #2
   4:	00c70002 	sbceq	r0, r7, r2
   8:	01020000 	mrseq	r0, (UNDEF: 2)
   c:	000d0efb 	strdeq	r0, [sp], -fp
  10:	01010101 	tsteq	r1, r1, lsl #2
  14:	01000000 	mrseq	r0, (UNDEF: 0)
  18:	2f010000 	svccs	0x00010000
  1c:	656d6f68 	strbvs	r6, [sp, #-3944]!	; 0xfffff098
  20:	7763742f 	strbvc	r7, [r3, -pc, lsr #8]!
  24:	75622d67 	strbvc	r2, [r2, #-3431]!	; 0xfffff299
  28:	73646c69 	cmnvc	r4, #26880	; 0x6900
  2c:	6576616c 	ldrbvs	r6, [r6, #-364]!	; 0xfffffe94
  30:	726f772f 	rsbvc	r7, pc, #12320768	; 0xbc0000
  34:	6170736b 	cmnvs	r0, fp, ror #6
  38:	742f6563 	strtvc	r6, [pc], #-1379	; 40 <shift+0x40>
  3c:	2d677763 	stclcs	7, cr7, [r7, #-396]!	; 0xfffffe74
  40:	656b616d 	strbvs	r6, [fp, #-365]!	; 0xfffffe93
  44:	6c65722d 	sfmvs	f7, 2, [r5], #-180	; 0xffffff4c
  48:	65736165 	ldrbvs	r6, [r3, #-357]!	; 0xfffffe9b
  4c:	62616c2f 	rsbvs	r6, r1, #12032	; 0x2f00
  50:	642f6c65 	strtvs	r6, [pc], #-3173	; 58 <shift+0x58>
  54:	656b636f 	strbvs	r6, [fp, #-879]!	; 0xfffffc91
  58:	72742d72 	rsbsvc	r2, r4, #7296	; 0x1c80
  5c:	79747375 	ldmdbvc	r4!, {r0, r2, r4, r5, r6, r8, r9, ip, sp, lr}^
  60:	646d612d 	strbtvs	r6, [sp], #-301	; 0xfffffed3
  64:	742d3436 	strtvc	r3, [sp], #-1078	; 0xfffffbca
  68:	2d677763 	stclcs	7, cr7, [r7, #-396]!	; 0xfffffe74
  6c:	6c697562 	cfstr64vs	mvdx7, [r9], #-392	; 0xfffffe78
  70:	61742f64 	cmnvs	r4, r4, ror #30
  74:	74656772 	strbtvc	r6, [r5], #-1906	; 0xfffff88e
  78:	6d72612f 	ldfvse	f6, [r2, #-188]!	; 0xffffff44
  7c:	6e696c2d 	cdpvs	12, 6, cr6, cr9, cr13, {1}
  80:	672d7875 			; <UNDEFINED> instruction: 0x672d7875
  84:	6165756e 	cmnvs	r5, lr, ror #10
  88:	66686962 	strbtvs	r6, [r8], -r2, ror #18
  8c:	616e732f 	cmnvs	lr, pc, lsr #6
  90:	6f687370 	svcvs	0x00687370
  94:	672f7374 			; <UNDEFINED> instruction: 0x672f7374
  98:	6c2d6363 	stcvs	3, cr6, [sp], #-396	; 0xfffffe74
  9c:	72616e69 	rsbvc	r6, r1, #1680	; 0x690
  a0:	2e342d6f 	cdpcs	13, 3, cr2, cr4, cr15, {3}
  a4:	30322d39 	eorscc	r2, r2, r9, lsr sp
  a8:	302e3731 	eorcc	r3, lr, r1, lsr r7
  ac:	696c2f31 	stmdbvs	ip!, {r0, r4, r5, r8, r9, sl, fp, sp}^
  b0:	63636762 	cmnvs	r3, #25690112	; 0x1880000
  b4:	6e6f632f 	cdpvs	3, 6, cr6, cr15, cr15, {1}
  b8:	2f676966 	svccs	0x00676966
  bc:	006d7261 	rsbeq	r7, sp, r1, ror #4
  c0:	62696c00 	rsbvs	r6, r9, #0, 24
  c4:	6e756631 	mrcvs	6, 3, r6, cr5, cr1, {1}
  c8:	532e7363 			; <UNDEFINED> instruction: 0x532e7363
  cc:	00000100 	andeq	r0, r0, r0, lsl #2
  d0:	02050000 	andeq	r0, r5, #0
  d4:	87802770 			; <UNDEFINED> instruction: 0x87802770
  d8:	0107cf03 	tsteq	r7, r3, lsl #30
  dc:	2f212121 	svccs	0x00212121
  e0:	30212f21 	eorcc	r2, r1, r1, lsr #30
  e4:	14029102 	strne	r9, [r2], #-258	; 0xfffffefe
  e8:	21212221 			; <UNDEFINED> instruction: 0x21212221
  ec:	2f4c2221 	svccs	0x004c2221
  f0:	207aeb03 	rsbscs	lr, sl, r3, lsl #22
  f4:	5805af03 	stmdapl	r5, {r0, r1, r8, r9, sl, fp, sp, pc}
  f8:	2f2f2121 	svccs	0x002f2121
  fc:	022f2f2f 	eoreq	r2, pc, #47, 30	; 0xbc
 100:	01010001 	tsteq	r1, r1
 104:	000000dd 	ldrdeq	r0, [r0], -sp
 108:	00c30002 	sbceq	r0, r3, r2
 10c:	01020000 	mrseq	r0, (UNDEF: 2)
 110:	000d0efb 	strdeq	r0, [sp], -fp
 114:	01010101 	tsteq	r1, r1, lsl #2
 118:	01000000 	mrseq	r0, (UNDEF: 0)
 11c:	2f010000 	svccs	0x00010000
 120:	656d6f68 	strbvs	r6, [sp, #-3944]!	; 0xfffff098
 124:	7763742f 	strbvc	r7, [r3, -pc, lsr #8]!
 128:	75622d67 	strbvc	r2, [r2, #-3431]!	; 0xfffff299
 12c:	73646c69 	cmnvc	r4, #26880	; 0x6900
 130:	6576616c 	ldrbvs	r6, [r6, #-364]!	; 0xfffffe94
 134:	726f772f 	rsbvc	r7, pc, #12320768	; 0xbc0000
 138:	6170736b 	cmnvs	r0, fp, ror #6
 13c:	742f6563 	strtvc	r6, [pc], #-1379	; 144 <shift+0x144>
 140:	2d677763 	stclcs	7, cr7, [r7, #-396]!	; 0xfffffe74
 144:	656b616d 	strbvs	r6, [fp, #-365]!	; 0xfffffe93
 148:	6c65722d 	sfmvs	f7, 2, [r5], #-180	; 0xffffff4c
 14c:	65736165 	ldrbvs	r6, [r3, #-357]!	; 0xfffffe9b
 150:	62616c2f 	rsbvs	r6, r1, #12032	; 0x2f00
 154:	642f6c65 	strtvs	r6, [pc], #-3173	; 15c <shift+0x15c>
 158:	656b636f 	strbvs	r6, [fp, #-879]!	; 0xfffffc91
 15c:	72742d72 	rsbsvc	r2, r4, #7296	; 0x1c80
 160:	79747375 	ldmdbvc	r4!, {r0, r2, r4, r5, r6, r8, r9, ip, sp, lr}^
 164:	646d612d 	strbtvs	r6, [sp], #-301	; 0xfffffed3
 168:	742d3436 	strtvc	r3, [sp], #-1078	; 0xfffffbca
 16c:	2d677763 	stclcs	7, cr7, [r7, #-396]!	; 0xfffffe74
 170:	6c697562 	cfstr64vs	mvdx7, [r9], #-392	; 0xfffffe78
 174:	61742f64 	cmnvs	r4, r4, ror #30
 178:	74656772 	strbtvc	r6, [r5], #-1906	; 0xfffff88e
 17c:	6d72612f 	ldfvse	f6, [r2, #-188]!	; 0xffffff44
 180:	6e696c2d 	cdpvs	12, 6, cr6, cr9, cr13, {1}
 184:	672d7875 			; <UNDEFINED> instruction: 0x672d7875
 188:	6165756e 	cmnvs	r5, lr, ror #10
 18c:	66686962 	strbtvs	r6, [r8], -r2, ror #18
 190:	616e732f 	cmnvs	lr, pc, lsr #6
 194:	6f687370 	svcvs	0x00687370
 198:	672f7374 			; <UNDEFINED> instruction: 0x672f7374
 19c:	6c2d6363 	stcvs	3, cr6, [sp], #-396	; 0xfffffe74
 1a0:	72616e69 	rsbvc	r6, r1, #1680	; 0x690
 1a4:	2e342d6f 	cdpcs	13, 3, cr2, cr4, cr15, {3}
 1a8:	30322d39 	eorscc	r2, r2, r9, lsr sp
 1ac:	302e3731 	eorcc	r3, lr, r1, lsr r7
 1b0:	696c2f31 	stmdbvs	ip!, {r0, r4, r5, r8, r9, sl, fp, sp}^
 1b4:	63636762 	cmnvs	r3, #25690112	; 0x1880000
 1b8:	6e6f632f 	cdpvs	3, 6, cr6, cr15, cr15, {1}
 1bc:	2f676966 	svccs	0x00676966
 1c0:	006d7261 	rsbeq	r7, sp, r1, ror #4
 1c4:	61706200 	cmnvs	r0, r0, lsl #4
 1c8:	532e6962 			; <UNDEFINED> instruction: 0x532e6962
 1cc:	00000100 	andeq	r0, r0, r0, lsl #2
 1d0:	02050000 	andeq	r0, r5, #0
 1d4:	878029e8 	strhi	r2, [r0, r8, ror #19]
 1d8:	0101fd03 	tsteq	r1, r3, lsl #26	; <UNPREDICTABLE>
 1dc:	592f4cbc 	stmdbpl	pc!, {r2, r3, r4, r5, r7, sl, fp, lr}	; <UNPREDICTABLE>
 1e0:	01000102 	tsteq	r0, r2, lsl #2
 1e4:	0000e301 	andeq	lr, r0, r1, lsl #6
 1e8:	c7000200 	strgt	r0, [r0, -r0, lsl #4]
 1ec:	02000000 	andeq	r0, r0, #0
 1f0:	0d0efb01 	vstreq	d15, [lr, #-4]
 1f4:	01010100 	mrseq	r0, (UNDEF: 17)
 1f8:	00000001 	andeq	r0, r0, r1
 1fc:	01000001 	tsteq	r0, r1
 200:	6d6f682f 	stclvs	8, cr6, [pc, #-188]!	; 14c <shift+0x14c>
 204:	63742f65 	cmnvs	r4, #404	; 0x194
 208:	622d6777 	eorvs	r6, sp, #31195136	; 0x1dc0000
 20c:	646c6975 	strbtvs	r6, [ip], #-2421	; 0xfffff68b
 210:	76616c73 			; <UNDEFINED> instruction: 0x76616c73
 214:	6f772f65 	svcvs	0x00772f65
 218:	70736b72 	rsbsvc	r6, r3, r2, ror fp
 21c:	2f656361 	svccs	0x00656361
 220:	67776374 			; <UNDEFINED> instruction: 0x67776374
 224:	6b616d2d 	blvs	185b6e0 <shift+0x185b6e0>
 228:	65722d65 	ldrbvs	r2, [r2, #-3429]!	; 0xfffff29b
 22c:	7361656c 	cmnvc	r1, #108, 10	; 0x1b000000
 230:	616c2f65 	cmnvs	ip, r5, ror #30
 234:	2f6c6562 	svccs	0x006c6562
 238:	6b636f64 	blvs	18dbfd0 <shift+0x18dbfd0>
 23c:	742d7265 	strtvc	r7, [sp], #-613	; 0xfffffd9b
 240:	74737572 	ldrbtvc	r7, [r3], #-1394	; 0xfffffa8e
 244:	6d612d79 	stclvs	13, cr2, [r1, #-484]!	; 0xfffffe1c
 248:	2d343664 	ldccs	6, cr3, [r4, #-400]!	; 0xfffffe70
 24c:	67776374 			; <UNDEFINED> instruction: 0x67776374
 250:	6975622d 	ldmdbvs	r5!, {r0, r2, r3, r5, r9, sp, lr}^
 254:	742f646c 	strtvc	r6, [pc], #-1132	; 25c <shift+0x25c>
 258:	65677261 	strbvs	r7, [r7, #-609]!	; 0xfffffd9f
 25c:	72612f74 	rsbvc	r2, r1, #116, 30	; 0x1d0
 260:	696c2d6d 	stmdbvs	ip!, {r0, r2, r3, r5, r6, r8, sl, fp, sp}^
 264:	2d78756e 	cfldr64cs	mvdx7, [r8, #-440]!	; 0xfffffe48
 268:	65756e67 	ldrbvs	r6, [r5, #-3687]!	; 0xfffff199
 26c:	68696261 	stmdavs	r9!, {r0, r5, r6, r9, sp, lr}^
 270:	6e732f66 	cdpvs	15, 7, cr2, cr3, cr6, {3}
 274:	68737061 	ldmdavs	r3!, {r0, r5, r6, ip, sp, lr}^
 278:	2f73746f 	svccs	0x0073746f
 27c:	2d636367 	stclcs	3, cr6, [r3, #-412]!	; 0xfffffe64
 280:	616e696c 	cmnvs	lr, ip, ror #18
 284:	342d6f72 	strtcc	r6, [sp], #-3954	; 0xfffff08e
 288:	322d392e 	eorcc	r3, sp, #753664	; 0xb8000
 28c:	2e373130 	mrccs	1, 1, r3, cr7, cr0, {1}
 290:	6c2f3130 	stfvss	f3, [pc], #-192	; 1d8 <shift+0x1d8>
 294:	63676269 	cmnvs	r7, #-1879048186	; 0x90000006
 298:	6f632f63 	svcvs	0x00632f63
 29c:	6769666e 	strbvs	r6, [r9, -lr, ror #12]!
 2a0:	6d72612f 	ldfvse	f6, [r2, #-188]!	; 0xffffff44
 2a4:	696c0000 	stmdbvs	ip!, {}^	; <UNPREDICTABLE>
 2a8:	75663162 	strbvc	r3, [r6, #-354]!	; 0xfffffe9e
 2ac:	2e73636e 	cdpcs	3, 7, cr6, cr3, cr14, {3}
 2b0:	00010053 	andeq	r0, r1, r3, asr r0
 2b4:	05000000 	streq	r0, [r0, #-0]
 2b8:	802a1802 	eorhi	r1, sl, r2, lsl #16
 2bc:	0ab00387 	beq	fec010e0 <__bss_end+0x773fd66c>
 2c0:	032f2101 			; <UNDEFINED> instruction: 0x032f2101
 2c4:	022e77bb 	eoreq	r7, lr, #49020928	; 0x2ec0000
 2c8:	01010001 	tsteq	r1, r1
 2cc:	00000113 	andeq	r0, r0, r3, lsl r1
 2d0:	00c70002 	sbceq	r0, r7, r2
 2d4:	01020000 	mrseq	r0, (UNDEF: 2)
 2d8:	000d0efb 	strdeq	r0, [sp], -fp
 2dc:	01010101 	tsteq	r1, r1, lsl #2
 2e0:	01000000 	mrseq	r0, (UNDEF: 0)
 2e4:	2f010000 	svccs	0x00010000
 2e8:	656d6f68 	strbvs	r6, [sp, #-3944]!	; 0xfffff098
 2ec:	7763742f 	strbvc	r7, [r3, -pc, lsr #8]!
 2f0:	75622d67 	strbvc	r2, [r2, #-3431]!	; 0xfffff299
 2f4:	73646c69 	cmnvc	r4, #26880	; 0x6900
 2f8:	6576616c 	ldrbvs	r6, [r6, #-364]!	; 0xfffffe94
 2fc:	726f772f 	rsbvc	r7, pc, #12320768	; 0xbc0000
 300:	6170736b 	cmnvs	r0, fp, ror #6
 304:	742f6563 	strtvc	r6, [pc], #-1379	; 30c <shift+0x30c>
 308:	2d677763 	stclcs	7, cr7, [r7, #-396]!	; 0xfffffe74
 30c:	656b616d 	strbvs	r6, [fp, #-365]!	; 0xfffffe93
 310:	6c65722d 	sfmvs	f7, 2, [r5], #-180	; 0xffffff4c
 314:	65736165 	ldrbvs	r6, [r3, #-357]!	; 0xfffffe9b
 318:	62616c2f 	rsbvs	r6, r1, #12032	; 0x2f00
 31c:	642f6c65 	strtvs	r6, [pc], #-3173	; 324 <shift+0x324>
 320:	656b636f 	strbvs	r6, [fp, #-879]!	; 0xfffffc91
 324:	72742d72 	rsbsvc	r2, r4, #7296	; 0x1c80
 328:	79747375 	ldmdbvc	r4!, {r0, r2, r4, r5, r6, r8, r9, ip, sp, lr}^
 32c:	646d612d 	strbtvs	r6, [sp], #-301	; 0xfffffed3
 330:	742d3436 	strtvc	r3, [sp], #-1078	; 0xfffffbca
 334:	2d677763 	stclcs	7, cr7, [r7, #-396]!	; 0xfffffe74
 338:	6c697562 	cfstr64vs	mvdx7, [r9], #-392	; 0xfffffe78
 33c:	61742f64 	cmnvs	r4, r4, ror #30
 340:	74656772 	strbtvc	r6, [r5], #-1906	; 0xfffff88e
 344:	6d72612f 	ldfvse	f6, [r2, #-188]!	; 0xffffff44
 348:	6e696c2d 	cdpvs	12, 6, cr6, cr9, cr13, {1}
 34c:	672d7875 			; <UNDEFINED> instruction: 0x672d7875
 350:	6165756e 	cmnvs	r5, lr, ror #10
 354:	66686962 	strbtvs	r6, [r8], -r2, ror #18
 358:	616e732f 	cmnvs	lr, pc, lsr #6
 35c:	6f687370 	svcvs	0x00687370
 360:	672f7374 			; <UNDEFINED> instruction: 0x672f7374
 364:	6c2d6363 	stcvs	3, cr6, [sp], #-396	; 0xfffffe74
 368:	72616e69 	rsbvc	r6, r1, #1680	; 0x690
 36c:	2e342d6f 	cdpcs	13, 3, cr2, cr4, cr15, {3}
 370:	30322d39 	eorscc	r2, r2, r9, lsr sp
 374:	302e3731 	eorcc	r3, lr, r1, lsr r7
 378:	696c2f31 	stmdbvs	ip!, {r0, r4, r5, r8, r9, sl, fp, sp}^
 37c:	63636762 	cmnvs	r3, #25690112	; 0x1880000
 380:	696c0000 	stmdbvs	ip!, {}^	; <UNPREDICTABLE>
 384:	63636762 	cmnvs	r3, #25690112	; 0x1880000
 388:	00632e32 	rsbeq	r2, r3, r2, lsr lr
 38c:	6c000001 	stcvs	0, cr0, [r0], {1}
 390:	63676269 	cmnvs	r7, #-1879048186	; 0x90000006
 394:	682e3263 	stmdavs	lr!, {r0, r1, r5, r6, r9, ip, sp}
 398:	00000100 	andeq	r0, r0, r0, lsl #2
 39c:	02050000 	andeq	r0, r5, #0
 3a0:	87802a24 	strhi	r2, [r0, r4, lsr #20]
 3a4:	0107b003 	tsteq	r7, r3
 3a8:	200c032e 	andcs	r0, ip, lr, lsr #6
 3ac:	03207403 			; <UNDEFINED> instruction: 0x03207403
 3b0:	74033c0c 	strvc	r3, [r3], #-3084	; 0xfffff3f4
 3b4:	0b03212e 	bleq	c8874 <shift+0xc8874>
 3b8:	4c4b223c 	sfmmi	f2, 2, [fp], {60}	; 0x3c
 3bc:	6803f921 	stmdavs	r3, {r0, r5, r8, fp, ip, sp, lr, pc}
 3c0:	3c18033c 	ldccc	3, cr0, [r8], {60}	; 0x3c
 3c4:	81212d23 			; <UNDEFINED> instruction: 0x81212d23
 3c8:	86523032 			; <UNDEFINED> instruction: 0x86523032
 3cc:	33304d29 	teqcc	r0, #2624	; 0xa40
 3d0:	214921b9 	strhcs	r2, [r9, #-25]	; 0xffffffe7
 3d4:	21320821 	teqcs	r2, r1, lsr #16
 3d8:	2e550330 	mrccs	3, 2, r0, cr5, cr0, {1}
 3dc:	05024b49 	streq	r4, [r2, #-2889]	; 0xfffff4b7
 3e0:	地址 0x00000000000003e0 越界。


Disassembly of section .debug_info:

00000000 <.debug_info>:
   0:	000001bb 			; <UNDEFINED> instruction: 0x000001bb
   4:	00000002 	andeq	r0, r0, r2
   8:	01040000 	mrseq	r0, (UNDEF: 4)
   c:	00000000 	andeq	r0, r0, r0
  10:	87802770 			; <UNDEFINED> instruction: 0x87802770
  14:	878029e6 	strhi	r2, [r0, r6, ror #19]
  18:	6d6f682f 	stclvs	8, cr6, [pc, #-188]!	; ffffff64 <__bss_end+0x787fc4f0>
  1c:	63742f65 	cmnvs	r4, #404	; 0x194
  20:	622d6777 	eorvs	r6, sp, #31195136	; 0x1dc0000
  24:	646c6975 	strbtvs	r6, [ip], #-2421	; 0xfffff68b
  28:	76616c73 			; <UNDEFINED> instruction: 0x76616c73
  2c:	6f772f65 	svcvs	0x00772f65
  30:	70736b72 	rsbsvc	r6, r3, r2, ror fp
  34:	2f656361 	svccs	0x00656361
  38:	67776374 			; <UNDEFINED> instruction: 0x67776374
  3c:	6b616d2d 	blvs	185b4f8 <shift+0x185b4f8>
  40:	65722d65 	ldrbvs	r2, [r2, #-3429]!	; 0xfffff29b
  44:	7361656c 	cmnvc	r1, #108, 10	; 0x1b000000
  48:	616c2f65 	cmnvs	ip, r5, ror #30
  4c:	2f6c6562 	svccs	0x006c6562
  50:	6b636f64 	blvs	18dbde8 <shift+0x18dbde8>
  54:	742d7265 	strtvc	r7, [sp], #-613	; 0xfffffd9b
  58:	74737572 	ldrbtvc	r7, [r3], #-1394	; 0xfffffa8e
  5c:	6d612d79 	stclvs	13, cr2, [r1, #-484]!	; 0xfffffe1c
  60:	2d343664 	ldccs	6, cr3, [r4, #-400]!	; 0xfffffe70
  64:	67776374 			; <UNDEFINED> instruction: 0x67776374
  68:	6975622d 	ldmdbvs	r5!, {r0, r2, r3, r5, r9, sp, lr}^
  6c:	742f646c 	strtvc	r6, [pc], #-1132	; 74 <shift+0x74>
  70:	65677261 	strbvs	r7, [r7, #-609]!	; 0xfffffd9f
  74:	72612f74 	rsbvc	r2, r1, #116, 30	; 0x1d0
  78:	696c2d6d 	stmdbvs	ip!, {r0, r2, r3, r5, r6, r8, sl, fp, sp}^
  7c:	2d78756e 	cfldr64cs	mvdx7, [r8, #-440]!	; 0xfffffe48
  80:	65756e67 	ldrbvs	r6, [r5, #-3687]!	; 0xfffff199
  84:	68696261 	stmdavs	r9!, {r0, r5, r6, r9, sp, lr}^
  88:	6e732f66 	cdpvs	15, 7, cr2, cr3, cr6, {3}
  8c:	68737061 	ldmdavs	r3!, {r0, r5, r6, ip, sp, lr}^
  90:	2f73746f 	svccs	0x0073746f
  94:	2d636367 	stclcs	3, cr6, [r3, #-412]!	; 0xfffffe64
  98:	616e696c 	cmnvs	lr, ip, ror #18
  9c:	342d6f72 	strtcc	r6, [sp], #-3954	; 0xfffff08e
  a0:	322d392e 	eorcc	r3, sp, #753664	; 0xb8000
  a4:	2e373130 	mrccs	1, 1, r3, cr7, cr0, {1}
  a8:	6c2f3130 	stfvss	f3, [pc], #-192	; fffffff0 <__bss_end+0x787fc57c>
  ac:	63676269 	cmnvs	r7, #-1879048186	; 0x90000006
  b0:	6f632f63 	svcvs	0x00632f63
  b4:	6769666e 	strbvs	r6, [r9, -lr, ror #12]!
  b8:	6d72612f 	ldfvse	f6, [r2, #-188]!	; 0xffffff44
  bc:	62696c2f 	rsbvs	r6, r9, #12032	; 0x2f00
  c0:	6e756631 	mrcvs	6, 3, r6, cr5, cr1, {1}
  c4:	532e7363 			; <UNDEFINED> instruction: 0x532e7363
  c8:	6f682f00 	svcvs	0x00682f00
  cc:	742f656d 	strtvc	r6, [pc], #-1389	; d4 <shift+0xd4>
  d0:	2d677763 	stclcs	7, cr7, [r7, #-396]!	; 0xfffffe74
  d4:	6c697562 	cfstr64vs	mvdx7, [r9], #-392	; 0xfffffe78
  d8:	616c7364 	cmnvs	ip, r4, ror #6
  dc:	772f6576 			; <UNDEFINED> instruction: 0x772f6576
  e0:	736b726f 	cmnvc	fp, #-268435450	; 0xf0000006
  e4:	65636170 	strbvs	r6, [r3, #-368]!	; 0xfffffe90
  e8:	7763742f 	strbvc	r7, [r3, -pc, lsr #8]!
  ec:	616d2d67 	cmnvs	sp, r7, ror #26
  f0:	722d656b 	eorvc	r6, sp, #448790528	; 0x1ac00000
  f4:	61656c65 	cmnvs	r5, r5, ror #24
  f8:	6c2f6573 	cfstr32vs	mvfx6, [pc], #-460	; ffffff34 <__bss_end+0x787fc4c0>
  fc:	6c656261 	sfmvs	f6, 2, [r5], #-388	; 0xfffffe7c
 100:	636f642f 	cmnvs	pc, #788529152	; 0x2f000000
 104:	2d72656b 	cfldr64cs	mvdx6, [r2, #-428]!	; 0xfffffe54
 108:	73757274 	cmnvc	r5, #116, 4	; 0x40000007
 10c:	612d7974 			; <UNDEFINED> instruction: 0x612d7974
 110:	3436646d 	ldrtcc	r6, [r6], #-1133	; 0xfffffb93
 114:	7763742d 	strbvc	r7, [r3, -sp, lsr #8]!
 118:	75622d67 	strbvc	r2, [r2, #-3431]!	; 0xfffff299
 11c:	2f646c69 	svccs	0x00646c69
 120:	67726174 			; <UNDEFINED> instruction: 0x67726174
 124:	612f7465 			; <UNDEFINED> instruction: 0x612f7465
 128:	6c2d6d72 	stcvs	13, cr6, [sp], #-456	; 0xfffffe38
 12c:	78756e69 	ldmdavc	r5!, {r0, r3, r5, r6, r9, sl, fp, sp, lr}^
 130:	756e672d 	strbvc	r6, [lr, #-1837]!	; 0xfffff8d3
 134:	69626165 	stmdbvs	r2!, {r0, r2, r5, r6, r8, sp, lr}^
 138:	5f2f6668 	svcpl	0x002f6668
 13c:	6c697562 	cfstr64vs	mvdx7, [r9], #-392	; 0xfffffe78
 140:	75622f64 	strbvc	r2, [r2, #-3940]!	; 0xfffff09c
 144:	73646c69 	cmnvc	r4, #26880	; 0x6900
 148:	3638782f 	ldrtcc	r7, [r8], -pc, lsr #16
 14c:	2d34365f 	ldccs	6, cr3, [r4, #-380]!	; 0xfffffe84
 150:	6e6b6e75 	mcrvs	14, 3, r6, cr11, cr5, {3}
 154:	2d6e776f 	stclcs	7, cr7, [lr, #-444]!	; 0xfffffe44
 158:	756e696c 	strbvc	r6, [lr, #-2412]!	; 0xfffff694
 15c:	6e672d78 	mcrvs	13, 3, r2, cr7, cr8, {3}
 160:	72612f75 	rsbvc	r2, r1, #468	; 0x1d4
 164:	696c2d6d 	stmdbvs	ip!, {r0, r2, r3, r5, r6, r8, sl, fp, sp}^
 168:	2d78756e 	cfldr64cs	mvdx7, [r8, #-440]!	; 0xfffffe48
 16c:	65756e67 	ldrbvs	r6, [r5, #-3687]!	; 0xfffff199
 170:	68696261 	stmdavs	r9!, {r0, r5, r6, r9, sp, lr}^
 174:	63672f66 	cmnvs	r7, #408	; 0x198
 178:	696c2d63 	stmdbvs	ip!, {r0, r1, r5, r6, r8, sl, fp, sp}^
 17c:	6f72616e 	svcvs	0x0072616e
 180:	392e342d 	stmdbcc	lr!, {r0, r2, r3, r5, sl, ip, sp}
 184:	3130322d 	teqcc	r0, sp, lsr #4
 188:	31302e37 	teqcc	r0, r7, lsr lr
 18c:	6174732d 	cmnvs	r4, sp, lsr #6
 190:	2f326567 	svccs	0x00326567
 194:	2d6d7261 	sfmcs	f7, 2, [sp, #-388]!	; 0xfffffe7c
 198:	756e696c 	strbvc	r6, [lr, #-2412]!	; 0xfffff694
 19c:	6e672d78 	mcrvs	13, 3, r2, cr7, cr8, {3}
 1a0:	62616575 	rsbvs	r6, r1, #490733568	; 0x1d400000
 1a4:	2f666869 	svccs	0x00666869
 1a8:	6762696c 	strbvs	r6, [r2, -ip, ror #18]!
 1ac:	47006363 	strmi	r6, [r0, -r3, ror #6]
 1b0:	4120554e 			; <UNDEFINED> instruction: 0x4120554e
 1b4:	2e322053 	mrccs	0, 1, r2, cr2, cr3, {2}
 1b8:	302e3432 	eorcc	r3, lr, r2, lsr r4
 1bc:	b7800100 	strlt	r0, [r0, r0, lsl #2]
 1c0:	02000001 	andeq	r0, r0, #1
 1c4:	00001400 	andeq	r1, r0, r0, lsl #8
 1c8:	04010400 	streq	r0, [r1], #-1024	; 0xfffffc00
 1cc:	e8000001 	stmda	r0, {r0}
 1d0:	18878029 	stmne	r7, {r0, r3, r5, pc}
 1d4:	2f87802a 	svccs	0x0087802a
 1d8:	656d6f68 	strbvs	r6, [sp, #-3944]!	; 0xfffff098
 1dc:	7763742f 	strbvc	r7, [r3, -pc, lsr #8]!
 1e0:	75622d67 	strbvc	r2, [r2, #-3431]!	; 0xfffff299
 1e4:	73646c69 	cmnvc	r4, #26880	; 0x6900
 1e8:	6576616c 	ldrbvs	r6, [r6, #-364]!	; 0xfffffe94
 1ec:	726f772f 	rsbvc	r7, pc, #12320768	; 0xbc0000
 1f0:	6170736b 	cmnvs	r0, fp, ror #6
 1f4:	742f6563 	strtvc	r6, [pc], #-1379	; 1fc <shift+0x1fc>
 1f8:	2d677763 	stclcs	7, cr7, [r7, #-396]!	; 0xfffffe74
 1fc:	656b616d 	strbvs	r6, [fp, #-365]!	; 0xfffffe93
 200:	6c65722d 	sfmvs	f7, 2, [r5], #-180	; 0xffffff4c
 204:	65736165 	ldrbvs	r6, [r3, #-357]!	; 0xfffffe9b
 208:	62616c2f 	rsbvs	r6, r1, #12032	; 0x2f00
 20c:	642f6c65 	strtvs	r6, [pc], #-3173	; 214 <shift+0x214>
 210:	656b636f 	strbvs	r6, [fp, #-879]!	; 0xfffffc91
 214:	72742d72 	rsbsvc	r2, r4, #7296	; 0x1c80
 218:	79747375 	ldmdbvc	r4!, {r0, r2, r4, r5, r6, r8, r9, ip, sp, lr}^
 21c:	646d612d 	strbtvs	r6, [sp], #-301	; 0xfffffed3
 220:	742d3436 	strtvc	r3, [sp], #-1078	; 0xfffffbca
 224:	2d677763 	stclcs	7, cr7, [r7, #-396]!	; 0xfffffe74
 228:	6c697562 	cfstr64vs	mvdx7, [r9], #-392	; 0xfffffe78
 22c:	61742f64 	cmnvs	r4, r4, ror #30
 230:	74656772 	strbtvc	r6, [r5], #-1906	; 0xfffff88e
 234:	6d72612f 	ldfvse	f6, [r2, #-188]!	; 0xffffff44
 238:	6e696c2d 	cdpvs	12, 6, cr6, cr9, cr13, {1}
 23c:	672d7875 			; <UNDEFINED> instruction: 0x672d7875
 240:	6165756e 	cmnvs	r5, lr, ror #10
 244:	66686962 	strbtvs	r6, [r8], -r2, ror #18
 248:	616e732f 	cmnvs	lr, pc, lsr #6
 24c:	6f687370 	svcvs	0x00687370
 250:	672f7374 			; <UNDEFINED> instruction: 0x672f7374
 254:	6c2d6363 	stcvs	3, cr6, [sp], #-396	; 0xfffffe74
 258:	72616e69 	rsbvc	r6, r1, #1680	; 0x690
 25c:	2e342d6f 	cdpcs	13, 3, cr2, cr4, cr15, {3}
 260:	30322d39 	eorscc	r2, r2, r9, lsr sp
 264:	302e3731 	eorcc	r3, lr, r1, lsr r7
 268:	696c2f31 	stmdbvs	ip!, {r0, r4, r5, r8, r9, sl, fp, sp}^
 26c:	63636762 	cmnvs	r3, #25690112	; 0x1880000
 270:	6e6f632f 	cdpvs	3, 6, cr6, cr15, cr15, {1}
 274:	2f676966 	svccs	0x00676966
 278:	2f6d7261 	svccs	0x006d7261
 27c:	62617062 	rsbvs	r7, r1, #98	; 0x62
 280:	00532e69 	subseq	r2, r3, r9, ror #28
 284:	6d6f682f 	stclvs	8, cr6, [pc, #-188]!	; 1d0 <shift+0x1d0>
 288:	63742f65 	cmnvs	r4, #404	; 0x194
 28c:	622d6777 	eorvs	r6, sp, #31195136	; 0x1dc0000
 290:	646c6975 	strbtvs	r6, [ip], #-2421	; 0xfffff68b
 294:	76616c73 			; <UNDEFINED> instruction: 0x76616c73
 298:	6f772f65 	svcvs	0x00772f65
 29c:	70736b72 	rsbsvc	r6, r3, r2, ror fp
 2a0:	2f656361 	svccs	0x00656361
 2a4:	67776374 			; <UNDEFINED> instruction: 0x67776374
 2a8:	6b616d2d 	blvs	185b764 <shift+0x185b764>
 2ac:	65722d65 	ldrbvs	r2, [r2, #-3429]!	; 0xfffff29b
 2b0:	7361656c 	cmnvc	r1, #108, 10	; 0x1b000000
 2b4:	616c2f65 	cmnvs	ip, r5, ror #30
 2b8:	2f6c6562 	svccs	0x006c6562
 2bc:	6b636f64 	blvs	18dc054 <shift+0x18dc054>
 2c0:	742d7265 	strtvc	r7, [sp], #-613	; 0xfffffd9b
 2c4:	74737572 	ldrbtvc	r7, [r3], #-1394	; 0xfffffa8e
 2c8:	6d612d79 	stclvs	13, cr2, [r1, #-484]!	; 0xfffffe1c
 2cc:	2d343664 	ldccs	6, cr3, [r4, #-400]!	; 0xfffffe70
 2d0:	67776374 			; <UNDEFINED> instruction: 0x67776374
 2d4:	6975622d 	ldmdbvs	r5!, {r0, r2, r3, r5, r9, sp, lr}^
 2d8:	742f646c 	strtvc	r6, [pc], #-1132	; 2e0 <shift+0x2e0>
 2dc:	65677261 	strbvs	r7, [r7, #-609]!	; 0xfffffd9f
 2e0:	72612f74 	rsbvc	r2, r1, #116, 30	; 0x1d0
 2e4:	696c2d6d 	stmdbvs	ip!, {r0, r2, r3, r5, r6, r8, sl, fp, sp}^
 2e8:	2d78756e 	cfldr64cs	mvdx7, [r8, #-440]!	; 0xfffffe48
 2ec:	65756e67 	ldrbvs	r6, [r5, #-3687]!	; 0xfffff199
 2f0:	68696261 	stmdavs	r9!, {r0, r5, r6, r9, sp, lr}^
 2f4:	625f2f66 	subsvs	r2, pc, #408	; 0x198
 2f8:	646c6975 	strbtvs	r6, [ip], #-2421	; 0xfffff68b
 2fc:	6975622f 	ldmdbvs	r5!, {r0, r1, r2, r3, r5, r9, sp, lr}^
 300:	2f73646c 	svccs	0x0073646c
 304:	5f363878 	svcpl	0x00363878
 308:	752d3436 	strvc	r3, [sp, #-1078]!	; 0xfffffbca
 30c:	6f6e6b6e 	svcvs	0x006e6b6e
 310:	6c2d6e77 	stcvs	14, cr6, [sp], #-476	; 0xfffffe24
 314:	78756e69 	ldmdavc	r5!, {r0, r3, r5, r6, r9, sl, fp, sp, lr}^
 318:	756e672d 	strbvc	r6, [lr, #-1837]!	; 0xfffff8d3
 31c:	6d72612f 	ldfvse	f6, [r2, #-188]!	; 0xffffff44
 320:	6e696c2d 	cdpvs	12, 6, cr6, cr9, cr13, {1}
 324:	672d7875 			; <UNDEFINED> instruction: 0x672d7875
 328:	6165756e 	cmnvs	r5, lr, ror #10
 32c:	66686962 	strbtvs	r6, [r8], -r2, ror #18
 330:	6363672f 	cmnvs	r3, #12320768	; 0xbc0000
 334:	6e696c2d 	cdpvs	12, 6, cr6, cr9, cr13, {1}
 338:	2d6f7261 	sfmcs	f7, 2, [pc, #-388]!	; 1bc <shift+0x1bc>
 33c:	2d392e34 	ldccs	14, cr2, [r9, #-208]!	; 0xffffff30
 340:	37313032 			; <UNDEFINED> instruction: 0x37313032
 344:	2d31302e 	ldccs	0, cr3, [r1, #-184]!	; 0xffffff48
 348:	67617473 			; <UNDEFINED> instruction: 0x67617473
 34c:	612f3265 			; <UNDEFINED> instruction: 0x612f3265
 350:	6c2d6d72 	stcvs	13, cr6, [sp], #-456	; 0xfffffe38
 354:	78756e69 	ldmdavc	r5!, {r0, r3, r5, r6, r9, sl, fp, sp, lr}^
 358:	756e672d 	strbvc	r6, [lr, #-1837]!	; 0xfffff8d3
 35c:	69626165 	stmdbvs	r2!, {r0, r2, r5, r6, r8, sp, lr}^
 360:	6c2f6668 	stcvs	6, cr6, [pc], #-416	; 1c8 <shift+0x1c8>
 364:	63676269 	cmnvs	r7, #-1879048186	; 0x90000006
 368:	4e470063 	cdpmi	0, 4, cr0, cr7, cr3, {3}
 36c:	53412055 	movtpl	r2, #4181	; 0x1055
 370:	322e3220 	eorcc	r3, lr, #32, 4
 374:	00302e34 	eorseq	r2, r0, r4, lsr lr
 378:	01bb8001 			; <UNDEFINED> instruction: 0x01bb8001
 37c:	00020000 	andeq	r0, r2, r0
 380:	00000028 	andeq	r0, r0, r8, lsr #32
 384:	01e50104 	mvneq	r0, r4, lsl #2
 388:	2a180000 	bcs	600390 <shift+0x600390>
 38c:	2a248780 	bcs	922194 <shift+0x922194>
 390:	682f8780 	stmdavs	pc!, {r7, r8, r9, sl, pc}	; <UNPREDICTABLE>
 394:	2f656d6f 	svccs	0x00656d6f
 398:	67776374 			; <UNDEFINED> instruction: 0x67776374
 39c:	6975622d 	ldmdbvs	r5!, {r0, r2, r3, r5, r9, sp, lr}^
 3a0:	6c73646c 	cfldrdvs	mvd6, [r3], #-432	; 0xfffffe50
 3a4:	2f657661 	svccs	0x00657661
 3a8:	6b726f77 	blvs	1c9c18c <shift+0x1c9c18c>
 3ac:	63617073 	cmnvs	r1, #115	; 0x73
 3b0:	63742f65 	cmnvs	r4, #404	; 0x194
 3b4:	6d2d6777 	stcvs	7, cr6, [sp, #-476]!	; 0xfffffe24
 3b8:	2d656b61 	fstmdbxcs	r5!, {d22-d69}	;@ Deprecated
 3bc:	656c6572 	strbvs	r6, [ip, #-1394]!	; 0xfffffa8e
 3c0:	2f657361 	svccs	0x00657361
 3c4:	6562616c 	strbvs	r6, [r2, #-364]!	; 0xfffffe94
 3c8:	6f642f6c 	svcvs	0x00642f6c
 3cc:	72656b63 	rsbvc	r6, r5, #101376	; 0x18c00
 3d0:	7572742d 	ldrbvc	r7, [r2, #-1069]!	; 0xfffffbd3
 3d4:	2d797473 	cfldrdcs	mvd7, [r9, #-460]!	; 0xfffffe34
 3d8:	36646d61 	strbtcc	r6, [r4], -r1, ror #26
 3dc:	63742d34 	cmnvs	r4, #52, 26	; 0xd00
 3e0:	622d6777 	eorvs	r6, sp, #31195136	; 0x1dc0000
 3e4:	646c6975 	strbtvs	r6, [ip], #-2421	; 0xfffff68b
 3e8:	7261742f 	rsbvc	r7, r1, #788529152	; 0x2f000000
 3ec:	2f746567 	svccs	0x00746567
 3f0:	2d6d7261 	sfmcs	f7, 2, [sp, #-388]!	; 0xfffffe7c
 3f4:	756e696c 	strbvc	r6, [lr, #-2412]!	; 0xfffff694
 3f8:	6e672d78 	mcrvs	13, 3, r2, cr7, cr8, {3}
 3fc:	62616575 	rsbvs	r6, r1, #490733568	; 0x1d400000
 400:	2f666869 	svccs	0x00666869
 404:	70616e73 	rsbvc	r6, r1, r3, ror lr
 408:	746f6873 	strbtvc	r6, [pc], #-2163	; 410 <shift+0x410>
 40c:	63672f73 	cmnvs	r7, #460	; 0x1cc
 410:	696c2d63 	stmdbvs	ip!, {r0, r1, r5, r6, r8, sl, fp, sp}^
 414:	6f72616e 	svcvs	0x0072616e
 418:	392e342d 	stmdbcc	lr!, {r0, r2, r3, r5, sl, ip, sp}
 41c:	3130322d 	teqcc	r0, sp, lsr #4
 420:	31302e37 	teqcc	r0, r7, lsr lr
 424:	62696c2f 	rsbvs	r6, r9, #12032	; 0x2f00
 428:	2f636367 	svccs	0x00636367
 42c:	666e6f63 	strbtvs	r6, [lr], -r3, ror #30
 430:	612f6769 			; <UNDEFINED> instruction: 0x612f6769
 434:	6c2f6d72 	stcvs	13, cr6, [pc], #-456	; 274 <shift+0x274>
 438:	66316269 	ldrtvs	r6, [r1], -r9, ror #4
 43c:	73636e75 	cmnvc	r3, #1872	; 0x750
 440:	2f00532e 	svccs	0x0000532e
 444:	656d6f68 	strbvs	r6, [sp, #-3944]!	; 0xfffff098
 448:	7763742f 	strbvc	r7, [r3, -pc, lsr #8]!
 44c:	75622d67 	strbvc	r2, [r2, #-3431]!	; 0xfffff299
 450:	73646c69 	cmnvc	r4, #26880	; 0x6900
 454:	6576616c 	ldrbvs	r6, [r6, #-364]!	; 0xfffffe94
 458:	726f772f 	rsbvc	r7, pc, #12320768	; 0xbc0000
 45c:	6170736b 	cmnvs	r0, fp, ror #6
 460:	742f6563 	strtvc	r6, [pc], #-1379	; 468 <shift+0x468>
 464:	2d677763 	stclcs	7, cr7, [r7, #-396]!	; 0xfffffe74
 468:	656b616d 	strbvs	r6, [fp, #-365]!	; 0xfffffe93
 46c:	6c65722d 	sfmvs	f7, 2, [r5], #-180	; 0xffffff4c
 470:	65736165 	ldrbvs	r6, [r3, #-357]!	; 0xfffffe9b
 474:	62616c2f 	rsbvs	r6, r1, #12032	; 0x2f00
 478:	642f6c65 	strtvs	r6, [pc], #-3173	; 480 <shift+0x480>
 47c:	656b636f 	strbvs	r6, [fp, #-879]!	; 0xfffffc91
 480:	72742d72 	rsbsvc	r2, r4, #7296	; 0x1c80
 484:	79747375 	ldmdbvc	r4!, {r0, r2, r4, r5, r6, r8, r9, ip, sp, lr}^
 488:	646d612d 	strbtvs	r6, [sp], #-301	; 0xfffffed3
 48c:	742d3436 	strtvc	r3, [sp], #-1078	; 0xfffffbca
 490:	2d677763 	stclcs	7, cr7, [r7, #-396]!	; 0xfffffe74
 494:	6c697562 	cfstr64vs	mvdx7, [r9], #-392	; 0xfffffe78
 498:	61742f64 	cmnvs	r4, r4, ror #30
 49c:	74656772 	strbtvc	r6, [r5], #-1906	; 0xfffff88e
 4a0:	6d72612f 	ldfvse	f6, [r2, #-188]!	; 0xffffff44
 4a4:	6e696c2d 	cdpvs	12, 6, cr6, cr9, cr13, {1}
 4a8:	672d7875 			; <UNDEFINED> instruction: 0x672d7875
 4ac:	6165756e 	cmnvs	r5, lr, ror #10
 4b0:	66686962 	strbtvs	r6, [r8], -r2, ror #18
 4b4:	75625f2f 	strbvc	r5, [r2, #-3887]!	; 0xfffff0d1
 4b8:	2f646c69 	svccs	0x00646c69
 4bc:	6c697562 	cfstr64vs	mvdx7, [r9], #-392	; 0xfffffe78
 4c0:	782f7364 	stmdavc	pc!, {r2, r5, r6, r8, r9, ip, sp, lr}	; <UNPREDICTABLE>
 4c4:	365f3638 			; <UNDEFINED> instruction: 0x365f3638
 4c8:	6e752d34 	mrcvs	13, 3, r2, cr5, cr4, {1}
 4cc:	776f6e6b 	strbvc	r6, [pc, -fp, ror #28]!
 4d0:	696c2d6e 	stmdbvs	ip!, {r1, r2, r3, r5, r6, r8, sl, fp, sp}^
 4d4:	2d78756e 	cfldr64cs	mvdx7, [r8, #-440]!	; 0xfffffe48
 4d8:	2f756e67 	svccs	0x00756e67
 4dc:	2d6d7261 	sfmcs	f7, 2, [sp, #-388]!	; 0xfffffe7c
 4e0:	756e696c 	strbvc	r6, [lr, #-2412]!	; 0xfffff694
 4e4:	6e672d78 	mcrvs	13, 3, r2, cr7, cr8, {3}
 4e8:	62616575 	rsbvs	r6, r1, #490733568	; 0x1d400000
 4ec:	2f666869 	svccs	0x00666869
 4f0:	2d636367 	stclcs	3, cr6, [r3, #-412]!	; 0xfffffe64
 4f4:	616e696c 	cmnvs	lr, ip, ror #18
 4f8:	342d6f72 	strtcc	r6, [sp], #-3954	; 0xfffff08e
 4fc:	322d392e 	eorcc	r3, sp, #753664	; 0xb8000
 500:	2e373130 	mrccs	1, 1, r3, cr7, cr0, {1}
 504:	732d3130 			; <UNDEFINED> instruction: 0x732d3130
 508:	65676174 	strbvs	r6, [r7, #-372]!	; 0xfffffe8c
 50c:	72612f32 	rsbvc	r2, r1, #50, 30	; 0xc8
 510:	696c2d6d 	stmdbvs	ip!, {r0, r2, r3, r5, r6, r8, sl, fp, sp}^
 514:	2d78756e 	cfldr64cs	mvdx7, [r8, #-440]!	; 0xfffffe48
 518:	65756e67 	ldrbvs	r6, [r5, #-3687]!	; 0xfffff199
 51c:	68696261 	stmdavs	r9!, {r0, r5, r6, r9, sp, lr}^
 520:	696c2f66 	stmdbvs	ip!, {r1, r2, r5, r6, r8, r9, sl, fp, sp}^
 524:	63636762 	cmnvs	r3, #25690112	; 0x1880000
 528:	554e4700 	strbpl	r4, [lr, #-1792]	; 0xfffff900
 52c:	20534120 	subscs	r4, r3, r0, lsr #2
 530:	34322e32 	ldrtcc	r2, [r2], #-3634	; 0xfffff1ce
 534:	0100302e 	tsteq	r0, lr, lsr #32
 538:	00015a80 	andeq	r5, r1, r0, lsl #21
 53c:	3c000400 	cfstrscc	mvf0, [r0], {-0}
 540:	04000000 	streq	r0, [r0], #-0
 544:	00012b01 	andeq	r2, r1, r1, lsl #22
 548:	024f0100 	subeq	r0, pc, #0, 2
 54c:	000d0000 	andeq	r0, sp, r0
 550:	2a240000 	bcs	900558 <shift+0x900558>
 554:	01168780 	tsteq	r6, r0, lsl #15
 558:	02cc0000 	sbceq	r0, ip, #0
 55c:	08020000 	stmdaeq	r2, {}	; <UNPREDICTABLE>
 560:	0000f307 	andeq	pc, r0, r7, lsl #6
 564:	05040300 	streq	r0, [r4, #-768]	; 0xfffffd00
 568:	00746e69 	rsbseq	r6, r4, r9, ror #28
 56c:	fd070402 	stc2	4, cr0, [r7, #-8]
 570:	02000000 	andeq	r0, r0, #0
 574:	010a0801 	tsteq	sl, r1, lsl #16
 578:	02020000 	andeq	r0, r2, #0
 57c:	00011807 	andeq	r1, r1, r7, lsl #16
 580:	07040200 	streq	r0, [r4, -r0, lsl #4]
 584:	000000f8 	strdeq	r0, [r0], -r8
 588:	0c060102 	stfeqs	f0, [r6], {2}
 58c:	02000001 	andeq	r0, r0, #1
 590:	02360502 	eorseq	r0, r6, #8388608	; 0x800000
 594:	08020000 	stmdaeq	r2, {}	; <UNPREDICTABLE>
 598:	00022005 	andeq	r2, r2, r5
 59c:	05040200 	streq	r0, [r4, #-512]	; 0xfffffe00
 5a0:	00000225 	andeq	r0, r0, r5, lsr #4
 5a4:	17070402 	strne	r0, [r7, -r2, lsl #8]
 5a8:	02000002 	andeq	r0, r0, #2
 5ac:	01130801 	tsteq	r3, r1, lsl #16
 5b0:	2e040000 	cdpcs	0, 0, cr0, cr4, cr0, {0}
 5b4:	02000002 	andeq	r0, r0, #2
 5b8:	00003382 	andeq	r3, r0, r2, lsl #7
 5bc:	02010400 	andeq	r0, r1, #0, 8
 5c0:	86020000 	strhi	r0, [r2], -r0
 5c4:	00000025 	andeq	r0, r0, r5, lsr #32
 5c8:	11040402 	tstne	r4, r2, lsl #8
 5cc:	02000002 	andeq	r0, r0, #2
 5d0:	02090308 	andeq	r0, r9, #8, 6	; 0x20000000
 5d4:	08020000 	stmdaeq	r2, {}	; <UNPREDICTABLE>
 5d8:	00024804 	andeq	r4, r2, r4, lsl #16
 5dc:	03100200 	tsteq	r0, #0, 4
 5e0:	00000240 	andeq	r0, r0, r0, asr #4
 5e4:	00000005 	andeq	r0, r0, r5
 5e8:	03b00100 	movseq	r0, #0, 2
 5ec:	00000084 	andeq	r0, r0, r4, lsl #1
 5f0:	87802a24 	strhi	r2, [r0, r4, lsr #20]
 5f4:	00000116 	andeq	r0, r0, r6, lsl r1
 5f8:	01579c01 	cmpeq	r7, r1, lsl #24
 5fc:	6e060000 	cdpvs	0, 0, cr0, cr6, cr0, {0}
 600:	03b00100 	movseq	r0, #0, 2
 604:	00000084 	andeq	r0, r0, r4, lsl #1
 608:	00000000 	andeq	r0, r0, r0
 60c:	01006406 	tsteq	r0, r6, lsl #8
 610:	008403b0 			; <UNDEFINED> instruction: 0x008403b0
 614:	00280000 	eoreq	r0, r8, r0
 618:	72060000 	andvc	r0, r6, #0
 61c:	b0010070 	andlt	r0, r1, r0, ror r0
 620:	00015703 	andeq	r5, r1, r3, lsl #14
 624:	00005000 	andeq	r5, r0, r0
 628:	00710700 	rsbseq	r0, r1, r0, lsl #14
 62c:	8403b201 	strhi	fp, [r3], #-513	; 0xfffffdff
 630:	70000000 	andvc	r0, r0, r0
 634:	07000000 	streq	r0, [r0, -r0]
 638:	b2010072 	andlt	r0, r1, #114	; 0x72
 63c:	00008403 	andeq	r8, r0, r3, lsl #8
 640:	0000d000 	andeq	sp, r0, r0
 644:	00790700 	rsbseq	r0, r9, r0, lsl #14
 648:	8403b201 	strhi	fp, [r3], #-513	; 0xfffffdff
 64c:	28000000 	stmdacs	r0, {}	; <UNPREDICTABLE>
 650:	07000001 	streq	r0, [r0, -r1]
 654:	00317a6c 	eorseq	r7, r1, ip, ror #20
 658:	7903b301 	stmdbvc	r3, {r0, r8, r9, ip, sp, pc}
 65c:	50000000 	andpl	r0, r0, r0
 660:	07000001 	streq	r0, [r0, -r1]
 664:	00327a6c 	eorseq	r7, r2, ip, ror #20
 668:	7903b301 	stmdbvc	r3, {r0, r8, r9, ip, sp, pc}
 66c:	63000000 	movwvs	r0, #0
 670:	07000001 	streq	r0, [r0, -r1]
 674:	b3010069 	movwlt	r0, #4201	; 0x1069
 678:	00007903 	andeq	r7, r0, r3, lsl #18
 67c:	00017600 	andeq	r7, r1, r0, lsl #12
 680:	006b0700 	rsbeq	r0, fp, r0, lsl #14
 684:	7903b301 	stmdbvc	r3, {r0, r8, r9, ip, sp, pc}
 688:	b9000000 	stmdblt	r0, {}	; <UNPREDICTABLE>
 68c:	00000001 	andeq	r0, r0, r1
 690:	00840408 	addeq	r0, r4, r8, lsl #8
 694:	地址 0x0000000000000694 越界。


Disassembly of section .debug_abbrev:

00000000 <.debug_abbrev>:
   0:	10001101 	andne	r1, r0, r1, lsl #2
   4:	12011106 	andne	r1, r1, #-2147483647	; 0x80000001
   8:	1b080301 	blne	200c14 <shift+0x200c14>
   c:	13082508 	movwne	r2, #34056	; 0x8508
  10:	00000005 	andeq	r0, r0, r5
  14:	10001101 	andne	r1, r0, r1, lsl #2
  18:	12011106 	andne	r1, r1, #-2147483647	; 0x80000001
  1c:	1b080301 	blne	200c28 <shift+0x200c28>
  20:	13082508 	movwne	r2, #34056	; 0x8508
  24:	00000005 	andeq	r0, r0, r5
  28:	10001101 	andne	r1, r0, r1, lsl #2
  2c:	12011106 	andne	r1, r1, #-2147483647	; 0x80000001
  30:	1b080301 	blne	200c3c <shift+0x200c3c>
  34:	13082508 	movwne	r2, #34056	; 0x8508
  38:	00000005 	andeq	r0, r0, r5
  3c:	25011101 	strcs	r1, [r1, #-257]	; 0xfffffeff
  40:	030b130e 	movweq	r1, #45838	; 0xb30e
  44:	110e1b0e 	tstne	lr, lr, lsl #22
  48:	10061201 	andne	r1, r6, r1, lsl #4
  4c:	02000017 	andeq	r0, r0, #23
  50:	0b0b0024 	bleq	2c00e8 <shift+0x2c00e8>
  54:	0e030b3e 	vmoveq.16	d3[0], r0
  58:	24030000 	strcs	r0, [r3], #-0
  5c:	3e0b0b00 	vmlacc.f64	d0, d11, d0
  60:	0008030b 	andeq	r0, r8, fp, lsl #6
  64:	00160400 	andseq	r0, r6, r0, lsl #8
  68:	0b3a0e03 	bleq	e8387c <shift+0xe8387c>
  6c:	13490b3b 	movtne	r0, #39739	; 0x9b3b
  70:	2e050000 	cdpcs	0, 0, cr0, cr5, cr0, {0}
  74:	03193f01 	tsteq	r9, #1, 30
  78:	3b0b3a0e 	blcc	2ce8b8 <shift+0x2ce8b8>
  7c:	49192705 	ldmdbmi	r9, {r0, r2, r8, r9, sl, sp}
  80:	12011113 	andne	r1, r1, #-1073741820	; 0xc0000004
  84:	97184006 	ldrls	r4, [r8, -r6]
  88:	13011942 	movwne	r1, #6466	; 0x1942
  8c:	05060000 	streq	r0, [r6, #-0]
  90:	3a080300 	bcc	200c98 <shift+0x200c98>
  94:	49053b0b 	stmdbmi	r5, {r0, r1, r3, r8, r9, fp, ip, sp}
  98:	00170213 	andseq	r0, r7, r3, lsl r2
  9c:	00340700 	eorseq	r0, r4, r0, lsl #14
  a0:	0b3a0803 	bleq	e820b4 <shift+0xe820b4>
  a4:	1349053b 	movtne	r0, #38203	; 0x953b
  a8:	00001702 	andeq	r1, r0, r2, lsl #14
  ac:	0b000f08 	bleq	3cd4 <shift+0x3cd4>
  b0:	0013490b 	andseq	r4, r3, fp, lsl #18
	...

Disassembly of section .debug_aranges:

00000000 <.debug_aranges>:
   0:	0000001c 	andeq	r0, r0, ip, lsl r0
   4:	00000002 	andeq	r0, r0, r2
   8:	00040000 	andeq	r0, r4, r0
   c:	00000000 	andeq	r0, r0, r0
  10:	87802770 			; <UNDEFINED> instruction: 0x87802770
  14:	00000276 	andeq	r0, r0, r6, ror r2
	...
  20:	0000001c 	andeq	r0, r0, ip, lsl r0
  24:	01bf0002 			; <UNDEFINED> instruction: 0x01bf0002
  28:	00040000 	andeq	r0, r4, r0
  2c:	00000000 	andeq	r0, r0, r0
  30:	878029e8 	strhi	r2, [r0, r8, ror #19]
  34:	00000030 	andeq	r0, r0, r0, lsr r0
	...
  40:	0000001c 	andeq	r0, r0, ip, lsl r0
  44:	037a0002 	cmneq	sl, #2
  48:	00040000 	andeq	r0, r4, r0
  4c:	00000000 	andeq	r0, r0, r0
  50:	87802a18 	usada8hi	r0, r8, sl, r2
  54:	0000000c 	andeq	r0, r0, ip
	...
  60:	0000001c 	andeq	r0, r0, ip, lsl r0
  64:	05390002 	ldreq	r0, [r9, #-2]!
  68:	00040000 	andeq	r0, r4, r0
  6c:	00000000 	andeq	r0, r0, r0
  70:	87802a24 	strhi	r2, [r0, r4, lsr #20]
  74:	00000116 	andeq	r0, r0, r6, lsl r1
	...

Disassembly of section .debug_loc:

00000000 <.debug_loc>:
   0:	00000000 	andeq	r0, r0, r0
   4:	0000000c 	andeq	r0, r0, ip
   8:	93500006 	cmpls	r0, #6
   c:	04935104 	ldreq	r5, [r3], #260	; 0x104
  10:	0000000c 	andeq	r0, r0, ip
  14:	00000116 	andeq	r0, r0, r6, lsl r1
  18:	03f30006 	mvnseq	r0, #6
  1c:	9f2500f5 	svcls	0x002500f5
	...
  2c:	00000014 	andeq	r0, r0, r4, lsl r0
  30:	93520006 	cmpls	r2, #6
  34:	04935304 	ldreq	r5, [r3], #772	; 0x304
  38:	00000014 	andeq	r0, r0, r4, lsl r0
  3c:	00000116 	andeq	r0, r0, r6, lsl r1
  40:	03f30006 	mvnseq	r0, #6
  44:	9f2502f5 	svcls	0x002502f5
	...
  54:	000000fc 	strdeq	r0, [r0], -ip
  58:	00910002 	addseq	r0, r1, r2
  5c:	000000fc 	strdeq	r0, [r0], -ip
  60:	00000116 	andeq	r0, r0, r6, lsl r1
  64:	00910002 	addseq	r0, r1, r2
	...
  74:	00000076 	andeq	r0, r0, r6, ror r0
  78:	089e000a 	ldmeq	lr, {r1, r3}
	...
  84:	00000076 	andeq	r0, r0, r6, ror r0
  88:	000000c0 	andeq	r0, r0, r0, asr #1
  8c:	93500006 	cmpls	r0, #6
  90:	04935104 	ldreq	r5, [r3], #260	; 0x104
  94:	000000ca 	andeq	r0, r0, sl, asr #1
  98:	000000ea 	andeq	r0, r0, sl, ror #1
  9c:	93500006 	cmpls	r0, #6
  a0:	04935104 	ldreq	r5, [r3], #260	; 0x104
  a4:	000000f2 	strdeq	r0, [r0], -r2
  a8:	000000fc 	strdeq	r0, [r0], -ip
  ac:	93500006 	cmpls	r0, #6
  b0:	04935104 	ldreq	r5, [r3], #260	; 0x104
  b4:	000000fc 	strdeq	r0, [r0], -ip
  b8:	00000116 	andeq	r0, r0, r6, lsl r1
  bc:	089e000a 	ldmeq	lr, {r1, r3}
	...
  d0:	0000000a 	andeq	r0, r0, sl
  d4:	00000062 	andeq	r0, r0, r2, rrx
  d8:	93540006 	cmpls	r4, #6
  dc:	04935504 	ldreq	r5, [r3], #1284	; 0x504
  e0:	00000076 	andeq	r0, r0, r6, ror r0
  e4:	00000084 	andeq	r0, r0, r4, lsl #1
  e8:	93540006 	cmpls	r4, #6
  ec:	04935504 	ldreq	r5, [r3], #1284	; 0x504
  f0:	00000092 	muleq	r0, r2, r0
  f4:	000000a0 	andeq	r0, r0, r0, lsr #1
  f8:	93540006 	cmpls	r4, #6
  fc:	04935504 	ldreq	r5, [r3], #1284	; 0x504
 100:	000000a2 	andeq	r0, r0, r2, lsr #1
 104:	000000c8 	andeq	r0, r0, r8, asr #1
 108:	93540006 	cmpls	r4, #6
 10c:	04935504 	ldreq	r5, [r3], #1284	; 0x504
 110:	000000cc 	andeq	r0, r0, ip, asr #1
 114:	00000116 	andeq	r0, r0, r6, lsl r1
 118:	93540006 	cmpls	r4, #6
 11c:	04935504 	ldreq	r5, [r3], #1284	; 0x504
	...
 128:	0000000e 	andeq	r0, r0, lr
 12c:	00000018 	andeq	r0, r0, r8, lsl r0
 130:	93500006 	cmpls	r0, #6
 134:	04935104 	ldreq	r5, [r3], #260	; 0x104
 138:	0000004e 	andeq	r0, r0, lr, asr #32
 13c:	000000ae 	andeq	r0, r0, lr, lsr #1
 140:	93560006 	cmpls	r6, #6
 144:	04935704 	ldreq	r5, [r3], #1796	; 0x704
	...
 150:	0000010c 	andeq	r0, r0, ip, lsl #2
 154:	00000116 	andeq	r0, r0, r6, lsl r1
 158:	00560001 	subseq	r0, r6, r1
 15c:	00000000 	andeq	r0, r0, r0
 160:	2c000000 	stccs	0, cr0, [r0], {-0}
 164:	2e000000 	cdpcs	0, 0, cr0, cr0, cr0, {0}
 168:	01000000 	mrseq	r0, (UNDEF: 0)
 16c:	00005300 	andeq	r5, r0, r0, lsl #6
 170:	00000000 	andeq	r0, r0, r0
 174:	00800000 	addeq	r0, r0, r0
 178:	00920000 	addseq	r0, r2, r0
 17c:	00010000 	andeq	r0, r1, r0
 180:	00009253 	andeq	r9, r0, r3, asr r2
 184:	00009400 	andeq	r9, r0, r0, lsl #8
 188:	73000300 	movwvc	r0, #768	; 0x300
 18c:	00949f7f 	addseq	r9, r4, pc, ror pc
 190:	00a20000 	adceq	r0, r2, r0
 194:	00010000 	andeq	r0, r1, r0
 198:	0000a253 	andeq	sl, r0, r3, asr r2
 19c:	0000a400 	andeq	sl, r0, r0, lsl #8
 1a0:	73000300 	movwvc	r0, #768	; 0x300
 1a4:	00a49f7f 	adceq	r9, r4, pc, ror pc
 1a8:	00b60000 	adcseq	r0, r6, r0
 1ac:	00010000 	andeq	r0, r1, r0
 1b0:	00000053 	andeq	r0, r0, r3, asr r0
 1b4:	00000000 	andeq	r0, r0, r0
 1b8:	00002e00 	andeq	r2, r0, r0, lsl #28
 1bc:	00008200 	andeq	r8, r0, r0, lsl #4
 1c0:	53000100 	movwpl	r0, #256	; 0x100
 1c4:	00000082 	andeq	r0, r0, r2, lsl #1
 1c8:	000000f2 	strdeq	r0, [r0], -r2
 1cc:	005e0001 	subseq	r0, lr, r1
 1d0:	00000000 	andeq	r0, r0, r0
 1d4:	地址 0x00000000000001d4 越界。


Disassembly of section .debug_str:

00000000 <.debug_str>:
   0:	64755f5f 	ldrbtvs	r5, [r5], #-3935	; 0xfffff0a1
   4:	6f6d7669 	svcvs	0x006d7669
   8:	34696464 	strbtcc	r6, [r9], #-1124	; 0xfffffb9c
   c:	6f682f00 	svcvs	0x00682f00
  10:	742f656d 	strtvc	r6, [pc], #-1389	; 18 <shift+0x18>
  14:	2d677763 	stclcs	7, cr7, [r7, #-396]!	; 0xfffffe74
  18:	6c697562 	cfstr64vs	mvdx7, [r9], #-392	; 0xfffffe78
  1c:	616c7364 	cmnvs	ip, r4, ror #6
  20:	772f6576 			; <UNDEFINED> instruction: 0x772f6576
  24:	736b726f 	cmnvc	fp, #-268435450	; 0xf0000006
  28:	65636170 	strbvs	r6, [r3, #-368]!	; 0xfffffe90
  2c:	7763742f 	strbvc	r7, [r3, -pc, lsr #8]!
  30:	616d2d67 	cmnvs	sp, r7, ror #26
  34:	722d656b 	eorvc	r6, sp, #448790528	; 0x1ac00000
  38:	61656c65 	cmnvs	r5, r5, ror #24
  3c:	6c2f6573 	cfstr32vs	mvfx6, [pc], #-460	; fffffe78 <__bss_end+0x787fc404>
  40:	6c656261 	sfmvs	f6, 2, [r5], #-388	; 0xfffffe7c
  44:	636f642f 	cmnvs	pc, #788529152	; 0x2f000000
  48:	2d72656b 	cfldr64cs	mvdx6, [r2, #-428]!	; 0xfffffe54
  4c:	73757274 	cmnvc	r5, #116, 4	; 0x40000007
  50:	612d7974 			; <UNDEFINED> instruction: 0x612d7974
  54:	3436646d 	ldrtcc	r6, [r6], #-1133	; 0xfffffb93
  58:	7763742d 	strbvc	r7, [r3, -sp, lsr #8]!
  5c:	75622d67 	strbvc	r2, [r2, #-3431]!	; 0xfffff299
  60:	2f646c69 	svccs	0x00646c69
  64:	67726174 			; <UNDEFINED> instruction: 0x67726174
  68:	612f7465 			; <UNDEFINED> instruction: 0x612f7465
  6c:	6c2d6d72 	stcvs	13, cr6, [sp], #-456	; 0xfffffe38
  70:	78756e69 	ldmdavc	r5!, {r0, r3, r5, r6, r9, sl, fp, sp, lr}^
  74:	756e672d 	strbvc	r6, [lr, #-1837]!	; 0xfffff8d3
  78:	69626165 	stmdbvs	r2!, {r0, r2, r5, r6, r8, sp, lr}^
  7c:	5f2f6668 	svcpl	0x002f6668
  80:	6c697562 	cfstr64vs	mvdx7, [r9], #-392	; 0xfffffe78
  84:	75622f64 	strbvc	r2, [r2, #-3940]!	; 0xfffff09c
  88:	73646c69 	cmnvc	r4, #26880	; 0x6900
  8c:	3638782f 	ldrtcc	r7, [r8], -pc, lsr #16
  90:	2d34365f 	ldccs	6, cr3, [r4, #-380]!	; 0xfffffe84
  94:	6e6b6e75 	mcrvs	14, 3, r6, cr11, cr5, {3}
  98:	2d6e776f 	stclcs	7, cr7, [lr, #-444]!	; 0xfffffe44
  9c:	756e696c 	strbvc	r6, [lr, #-2412]!	; 0xfffff694
  a0:	6e672d78 	mcrvs	13, 3, r2, cr7, cr8, {3}
  a4:	72612f75 	rsbvc	r2, r1, #468	; 0x1d4
  a8:	696c2d6d 	stmdbvs	ip!, {r0, r2, r3, r5, r6, r8, sl, fp, sp}^
  ac:	2d78756e 	cfldr64cs	mvdx7, [r8, #-440]!	; 0xfffffe48
  b0:	65756e67 	ldrbvs	r6, [r5, #-3687]!	; 0xfffff199
  b4:	68696261 	stmdavs	r9!, {r0, r5, r6, r9, sp, lr}^
  b8:	63672f66 	cmnvs	r7, #408	; 0x198
  bc:	696c2d63 	stmdbvs	ip!, {r0, r1, r5, r6, r8, sl, fp, sp}^
  c0:	6f72616e 	svcvs	0x0072616e
  c4:	392e342d 	stmdbcc	lr!, {r0, r2, r3, r5, sl, ip, sp}
  c8:	3130322d 	teqcc	r0, sp, lsr #4
  cc:	31302e37 	teqcc	r0, r7, lsr lr
  d0:	6174732d 	cmnvs	r4, sp, lsr #6
  d4:	2f326567 	svccs	0x00326567
  d8:	2d6d7261 	sfmcs	f7, 2, [sp, #-388]!	; 0xfffffe7c
  dc:	756e696c 	strbvc	r6, [lr, #-2412]!	; 0xfffff694
  e0:	6e672d78 	mcrvs	13, 3, r2, cr7, cr8, {3}
  e4:	62616575 	rsbvs	r6, r1, #490733568	; 0x1d400000
  e8:	2f666869 	svccs	0x00666869
  ec:	6762696c 	strbvs	r6, [r2, -ip, ror #18]!
  f0:	6c006363 	stcvs	3, cr6, [r0], {99}	; 0x63
  f4:	20676e6f 	rsbcs	r6, r7, pc, ror #28
  f8:	676e6f6c 	strbvs	r6, [lr, -ip, ror #30]!
  fc:	736e7520 	cmnvc	lr, #32, 10	; 0x8000000
 100:	656e6769 	strbvs	r6, [lr, #-1897]!	; 0xfffff897
 104:	6e692064 	cdpvs	0, 6, cr2, cr9, cr4, {3}
 108:	6e750074 	mrcvs	0, 3, r0, cr5, cr4, {3}
 10c:	6e676973 			; <UNDEFINED> instruction: 0x6e676973
 110:	63206465 			; <UNDEFINED> instruction: 0x63206465
 114:	00726168 	rsbseq	r6, r2, r8, ror #2
 118:	726f6873 	rsbvc	r6, pc, #7536640	; 0x730000
 11c:	6e752074 	mrcvs	0, 3, r2, cr5, cr4, {3}
 120:	6e676973 			; <UNDEFINED> instruction: 0x6e676973
 124:	69206465 	stmdbvs	r0!, {r0, r2, r5, r6, sl, sp, lr}
 128:	4700746e 	strmi	r7, [r0, -lr, ror #8]
 12c:	4320554e 			; <UNDEFINED> instruction: 0x4320554e
 130:	392e3420 	stmdbcc	lr!, {r5, sl, ip, sp}
 134:	2d20342e 	cfstrscs	mvf3, [r0, #-184]!	; 0xffffff48
 138:	6372616d 	cmnvs	r2, #1073741851	; 0x4000001b
 13c:	72613d68 	rsbvc	r3, r1, #104, 26	; 0x1a00
 140:	2d37766d 	ldccs	6, cr7, [r7, #-436]!	; 0xfffffe4c
 144:	6d2d2061 	stcvs	0, cr2, [sp, #-388]!	; 0xfffffe7c
 148:	656e7574 	strbvs	r7, [lr, #-1396]!	; 0xfffffa8c
 14c:	726f633d 	rsbvc	r6, pc, #-201326592	; 0xf4000000
 150:	2d786574 	cfldr64cs	mvdx6, [r8, #-464]!	; 0xfffffe30
 154:	2d203961 			; <UNDEFINED> instruction: 0x2d203961
 158:	6f6c666d 	svcvs	0x006c666d
 15c:	612d7461 			; <UNDEFINED> instruction: 0x612d7461
 160:	683d6962 	ldmdavs	sp!, {r1, r5, r6, r8, fp, sp, lr}
 164:	20647261 	rsbcs	r7, r4, r1, ror #4
 168:	70666d2d 	rsbvc	r6, r6, sp, lsr #26
 16c:	66763d75 			; <UNDEFINED> instruction: 0x66763d75
 170:	2d337670 	ldccs	6, cr7, [r3, #-448]!	; 0xfffffe40
 174:	20363164 	eorscs	r3, r6, r4, ror #2
 178:	68746d2d 	ldmdavs	r4!, {r0, r2, r3, r5, r8, sl, fp, sp, lr}^
 17c:	20626d75 	rsbcs	r6, r2, r5, ror sp
 180:	6c746d2d 	ldclvs	13, cr6, [r4], #-180	; 0xffffff4c
 184:	69642d73 	stmdbvs	r4!, {r0, r1, r4, r5, r6, r8, sl, fp, sp}^
 188:	63656c61 	cmnvs	r5, #24832	; 0x6100
 18c:	6e673d74 	mcrvs	13, 3, r3, cr7, cr4, {3}
 190:	672d2075 			; <UNDEFINED> instruction: 0x672d2075
 194:	20672d20 	rsbcs	r2, r7, r0, lsr #26
 198:	2d20672d 	stccs	7, cr6, [r0, #-180]!	; 0xffffff4c
 19c:	2d20324f 	sfmcs	f3, 4, [r0, #-316]!	; 0xfffffec4
 1a0:	2d20324f 	sfmcs	f3, 4, [r0, #-316]!	; 0xfffffec4
 1a4:	2d20324f 	sfmcs	f3, 4, [r0, #-316]!	; 0xfffffec4
 1a8:	69756266 	ldmdbvs	r5!, {r1, r2, r5, r6, r9, sp, lr}^
 1ac:	6e69646c 	cdpvs	4, 6, cr6, cr9, cr12, {3}
 1b0:	696c2d67 	stmdbvs	ip!, {r0, r1, r2, r5, r6, r8, sl, fp, sp}^
 1b4:	63636762 	cmnvs	r3, #25690112	; 0x1880000
 1b8:	6e662d20 	cdpvs	13, 6, cr2, cr6, cr0, {1}
 1bc:	74732d6f 	ldrbtvc	r2, [r3], #-3439	; 0xfffff291
 1c0:	2d6b6361 	stclcs	3, cr6, [fp, #-388]!	; 0xfffffe7c
 1c4:	746f7270 	strbtvc	r7, [pc], #-624	; 1cc <shift+0x1cc>
 1c8:	6f746365 	svcvs	0x00746365
 1cc:	662d2072 			; <UNDEFINED> instruction: 0x662d2072
 1d0:	20434950 	subcs	r4, r3, r0, asr r9
 1d4:	6f6e662d 	svcvs	0x006e662d
 1d8:	6c6e692d 			; <UNDEFINED> instruction: 0x6c6e692d
 1dc:	20656e69 	rsbcs	r6, r5, r9, ror #28
 1e0:	7865662d 	stmdavc	r5!, {r0, r2, r3, r5, r9, sl, sp, lr}^
 1e4:	74706563 	ldrbtvc	r6, [r0], #-1379	; 0xfffffa9d
 1e8:	736e6f69 	cmnvc	lr, #420	; 0x1a4
 1ec:	76662d20 	strbtvc	r2, [r6], -r0, lsr #26
 1f0:	62697369 	rsbvs	r7, r9, #-1543503871	; 0xa4000001
 1f4:	74696c69 	strbtvc	r6, [r9], #-3177	; 0xfffff397
 1f8:	69683d79 	stmdbvs	r8!, {r0, r3, r4, r5, r6, r8, sl, fp, ip, sp}^
 1fc:	6e656464 	cdpvs	4, 6, cr6, cr5, cr4, {3}
 200:	49445500 	stmdbmi	r4, {r8, sl, ip, lr}^
 204:	65707974 	ldrbvs	r7, [r0, #-2420]!	; 0xfffff68c
 208:	6d6f6300 	stclvs	3, cr6, [pc, #-0]	; 210 <shift+0x210>
 20c:	78656c70 	stmdavc	r5!, {r4, r5, r6, sl, fp, sp, lr}^
 210:	6f6c6620 	svcvs	0x006c6620
 214:	73007461 	movwvc	r7, #1121	; 0x461
 218:	74657a69 	strbtvc	r7, [r5], #-2665	; 0xfffff597
 21c:	00657079 	rsbeq	r7, r5, r9, ror r0
 220:	676e6f6c 	strbvs	r6, [lr, -ip, ror #30]!
 224:	6e6f6c20 	cdpvs	12, 6, cr6, cr15, cr0, {1}
 228:	6e692067 	cdpvs	0, 6, cr2, cr9, cr7, {3}
 22c:	53550074 	cmppl	r5, #116	; 0x74
 230:	70797449 	rsbsvc	r7, r9, r9, asr #8
 234:	68730065 	ldmdavs	r3!, {r0, r2, r5, r6}^
 238:	2074726f 	rsbscs	r7, r4, pc, ror #4
 23c:	00746e69 	rsbseq	r6, r4, r9, ror #28
 240:	706d6f63 	rsbvc	r6, sp, r3, ror #30
 244:	2078656c 	rsbscs	r6, r8, ip, ror #10
 248:	62756f64 	rsbsvs	r6, r5, #100, 30	; 0x190
 24c:	2f00656c 	svccs	0x0000656c
 250:	656d6f68 	strbvs	r6, [sp, #-3944]!	; 0xfffff098
 254:	7763742f 	strbvc	r7, [r3, -pc, lsr #8]!
 258:	75622d67 	strbvc	r2, [r2, #-3431]!	; 0xfffff299
 25c:	73646c69 	cmnvc	r4, #26880	; 0x6900
 260:	6576616c 	ldrbvs	r6, [r6, #-364]!	; 0xfffffe94
 264:	726f772f 	rsbvc	r7, pc, #12320768	; 0xbc0000
 268:	6170736b 	cmnvs	r0, fp, ror #6
 26c:	742f6563 	strtvc	r6, [pc], #-1379	; 274 <shift+0x274>
 270:	2d677763 	stclcs	7, cr7, [r7, #-396]!	; 0xfffffe74
 274:	656b616d 	strbvs	r6, [fp, #-365]!	; 0xfffffe93
 278:	6c65722d 	sfmvs	f7, 2, [r5], #-180	; 0xffffff4c
 27c:	65736165 	ldrbvs	r6, [r3, #-357]!	; 0xfffffe9b
 280:	62616c2f 	rsbvs	r6, r1, #12032	; 0x2f00
 284:	642f6c65 	strtvs	r6, [pc], #-3173	; 28c <shift+0x28c>
 288:	656b636f 	strbvs	r6, [fp, #-879]!	; 0xfffffc91
 28c:	72742d72 	rsbsvc	r2, r4, #7296	; 0x1c80
 290:	79747375 	ldmdbvc	r4!, {r0, r2, r4, r5, r6, r8, r9, ip, sp, lr}^
 294:	646d612d 	strbtvs	r6, [sp], #-301	; 0xfffffed3
 298:	742d3436 	strtvc	r3, [sp], #-1078	; 0xfffffbca
 29c:	2d677763 	stclcs	7, cr7, [r7, #-396]!	; 0xfffffe74
 2a0:	6c697562 	cfstr64vs	mvdx7, [r9], #-392	; 0xfffffe78
 2a4:	61742f64 	cmnvs	r4, r4, ror #30
 2a8:	74656772 	strbtvc	r6, [r5], #-1906	; 0xfffff88e
 2ac:	6d72612f 	ldfvse	f6, [r2, #-188]!	; 0xffffff44
 2b0:	6e696c2d 	cdpvs	12, 6, cr6, cr9, cr13, {1}
 2b4:	672d7875 			; <UNDEFINED> instruction: 0x672d7875
 2b8:	6165756e 	cmnvs	r5, lr, ror #10
 2bc:	66686962 	strbtvs	r6, [r8], -r2, ror #18
 2c0:	616e732f 	cmnvs	lr, pc, lsr #6
 2c4:	6f687370 	svcvs	0x00687370
 2c8:	672f7374 			; <UNDEFINED> instruction: 0x672f7374
 2cc:	6c2d6363 	stcvs	3, cr6, [sp], #-396	; 0xfffffe74
 2d0:	72616e69 	rsbvc	r6, r1, #1680	; 0x690
 2d4:	2e342d6f 	cdpcs	13, 3, cr2, cr4, cr15, {3}
 2d8:	30322d39 	eorscc	r2, r2, r9, lsr sp
 2dc:	302e3731 	eorcc	r3, lr, r1, lsr r7
 2e0:	696c2f31 	stmdbvs	ip!, {r0, r4, r5, r8, r9, sl, fp, sp}^
 2e4:	63636762 	cmnvs	r3, #25690112	; 0x1880000
 2e8:	62696c2f 	rsbvs	r6, r9, #12032	; 0x2f00
 2ec:	32636367 	rsbcc	r6, r3, #-1677721599	; 0x9c000001
 2f0:	地址 0x00000000000002f0 越界。

